
code6.elf:     file format elf32-bigmips


Disassembly of section .text.start:

10000000 <_entry>:
10000000:	3c051001 	lui	a1,0x1001
10000004:	24a562a0 	addiu	a1,a1,25248
10000008:	3c041009 	lui	a0,0x1009
1000000c:	2484168c 	addiu	a0,a0,5772
10000010:	3c1c1001 	lui	gp,0x1001
10000014:	279c62a0 	addiu	gp,gp,25248
10000018:	3c1d2000 	lui	sp,0x2000
1000001c:	27bdfffc 	addiu	sp,sp,-4
10000020:	aca00000 	sw	zero,0(a1)
10000024:	00a4182a 	slt	v1,a1,a0
10000028:	24a50004 	addiu	a1,a1,4
1000002c:	1460fffc 	bnez	v1,10000020 <_entry+0x20>
10000030:	00000000 	nop
10000034:	0c000714 	jal	10001c50 <main>
10000038:	00000000 	nop
1000003c:	3c1ae000 	lui	k0,0xe000
10000040:	af400000 	sw	zero,0(k0)
10000044:	1000ffff 	b	10000044 <_entry+0x44>
10000048:	00000000 	nop
	...

10000100 <_isr>:
10000100:	23bdff98 	addi	sp,sp,-104
10000104:	afa10010 	sw	at,16(sp)
10000108:	afa20014 	sw	v0,20(sp)
1000010c:	afa30018 	sw	v1,24(sp)
10000110:	afa4001c 	sw	a0,28(sp)
10000114:	afa50020 	sw	a1,32(sp)
10000118:	afa60024 	sw	a2,36(sp)
1000011c:	afa70028 	sw	a3,40(sp)
10000120:	afa8002c 	sw	t0,44(sp)
10000124:	afa90030 	sw	t1,48(sp)
10000128:	afaa0034 	sw	t2,52(sp)
1000012c:	afab0038 	sw	t3,56(sp)
10000130:	afac003c 	sw	t4,60(sp)
10000134:	afad0040 	sw	t5,64(sp)
10000138:	afae0044 	sw	t6,68(sp)
1000013c:	afaf0048 	sw	t7,72(sp)
10000140:	afb8004c 	sw	t8,76(sp)
10000144:	afb90050 	sw	t9,80(sp)
10000148:	afbf0054 	sw	ra,84(sp)
1000014c:	401a7000 	mfc0	k0,c0_epc
10000150:	235afffc 	addi	k0,k0,-4
10000154:	afba0058 	sw	k0,88(sp)
10000158:	0000d810 	mfhi	k1
1000015c:	afbb005c 	sw	k1,92(sp)
10000160:	0000d812 	mflo	k1
10000164:	afbb0060 	sw	k1,96(sp)
10000168:	3c052000 	lui	a1,0x2000
1000016c:	8ca40020 	lw	a0,32(a1)
10000170:	8ca60010 	lw	a2,16(a1)
10000174:	00862024 	and	a0,a0,a2
10000178:	0c00041a 	jal	10001068 <_irq_handler>
1000017c:	27a50000 	addiu	a1,sp,0
10000180:	8fa10010 	lw	at,16(sp)
10000184:	8fa20014 	lw	v0,20(sp)
10000188:	8fa30018 	lw	v1,24(sp)
1000018c:	8fa4001c 	lw	a0,28(sp)
10000190:	8fa50020 	lw	a1,32(sp)
10000194:	8fa60024 	lw	a2,36(sp)
10000198:	8fa70028 	lw	a3,40(sp)
1000019c:	8fa8002c 	lw	t0,44(sp)
100001a0:	8fa90030 	lw	t1,48(sp)
100001a4:	8faa0034 	lw	t2,52(sp)
100001a8:	8fab0038 	lw	t3,56(sp)
100001ac:	8fac003c 	lw	t4,60(sp)
100001b0:	8fad0040 	lw	t5,64(sp)
100001b4:	8fae0044 	lw	t6,68(sp)
100001b8:	8faf0048 	lw	t7,72(sp)
100001bc:	8fb8004c 	lw	t8,76(sp)
100001c0:	8fb90050 	lw	t9,80(sp)
100001c4:	8fbf0054 	lw	ra,84(sp)
100001c8:	8fba0058 	lw	k0,88(sp)
100001cc:	8fbb005c 	lw	k1,92(sp)
100001d0:	03600011 	mthi	k1
100001d4:	8fbb0060 	lw	k1,96(sp)
100001d8:	03600013 	mtlo	k1
100001dc:	23bd0068 	addi	sp,sp,104

100001e0 <isr_return>:
100001e0:	341b0001 	li	k1,0x1
100001e4:	03400008 	jr	k0
100001e8:	409b6000 	mtc0	k1,c0_sr

100001ec <_interrupt_set>:
100001ec:	40026000 	mfc0	v0,c0_sr
100001f0:	40846000 	mtc0	a0,c0_sr
100001f4:	03e00008 	jr	ra
100001f8:	40846000 	mtc0	a0,c0_sr

100001fc <_interrupt_init>:
100001fc:	3c051000 	lui	a1,0x1000
10000200:	24a5022c 	addiu	a1,a1,556
10000204:	8ca60000 	lw	a2,0(a1)
10000208:	ac06003c 	sw	a2,60(zero)
1000020c:	8ca60004 	lw	a2,4(a1)
10000210:	ac060040 	sw	a2,64(zero)
10000214:	8ca60008 	lw	a2,8(a1)
10000218:	ac060044 	sw	a2,68(zero)
1000021c:	8ca6000c 	lw	a2,12(a1)
10000220:	ac060048 	sw	a2,72(zero)
10000224:	03e00008 	jr	ra
10000228:	00000000 	nop

1000022c <_irq_patch>:
1000022c:	3c1a1000 	lui	k0,0x1000
10000230:	275a0100 	addiu	k0,k0,256
10000234:	03400008 	jr	k0
10000238:	00000000 	nop

1000023c <setjmp>:
1000023c:	ac900000 	sw	s0,0(a0)
10000240:	ac910004 	sw	s1,4(a0)
10000244:	ac920008 	sw	s2,8(a0)
10000248:	ac93000c 	sw	s3,12(a0)
1000024c:	ac940010 	sw	s4,16(a0)
10000250:	ac950014 	sw	s5,20(a0)
10000254:	ac960018 	sw	s6,24(a0)
10000258:	ac97001c 	sw	s7,28(a0)
1000025c:	ac9e0020 	sw	s8,32(a0)
10000260:	ac9c0024 	sw	gp,36(a0)
10000264:	ac9d0028 	sw	sp,40(a0)
10000268:	ac9f002c 	sw	ra,44(a0)
1000026c:	03e00008 	jr	ra
10000270:	34020000 	li	v0,0x0

10000274 <longjmp>:
10000274:	8c900000 	lw	s0,0(a0)
10000278:	8c910004 	lw	s1,4(a0)
1000027c:	8c920008 	lw	s2,8(a0)
10000280:	8c93000c 	lw	s3,12(a0)
10000284:	8c940010 	lw	s4,16(a0)
10000288:	8c950014 	lw	s5,20(a0)
1000028c:	8c960018 	lw	s6,24(a0)
10000290:	8c97001c 	lw	s7,28(a0)
10000294:	8c9e0020 	lw	s8,32(a0)
10000298:	8c9c0024 	lw	gp,36(a0)
1000029c:	8c9d0028 	lw	sp,40(a0)
100002a0:	8c9f002c 	lw	ra,44(a0)
100002a4:	03e00008 	jr	ra
100002a8:	34a20000 	ori	v0,a1,0x0

100002ac <_restoreexec>:
100002ac:	8c900000 	lw	s0,0(a0)
100002b0:	8c910004 	lw	s1,4(a0)
100002b4:	8c920008 	lw	s2,8(a0)
100002b8:	8c93000c 	lw	s3,12(a0)
100002bc:	8c940010 	lw	s4,16(a0)
100002c0:	8c950014 	lw	s5,20(a0)
100002c4:	8c960018 	lw	s6,24(a0)
100002c8:	8c97001c 	lw	s7,28(a0)
100002cc:	8c9e0020 	lw	s8,32(a0)
100002d0:	8c9c0024 	lw	gp,36(a0)
100002d4:	8c9d0028 	lw	sp,40(a0)
100002d8:	8c9f002c 	lw	ra,44(a0)
100002dc:	341b0001 	li	k1,0x1
100002e0:	409b6000 	mtc0	k1,c0_sr
100002e4:	03e00008 	jr	ra
100002e8:	34a20000 	ori	v0,a1,0x0

Disassembly of section .text:

100002ec <gausian>:
100002ec:	3c021000 	lui	v0,0x1000
100002f0:	27bdffc8 	addiu	sp,sp,-56
100002f4:	24423c74 	addiu	v0,v0,15476
100002f8:	03a01821 	move	v1,sp
100002fc:	24450030 	addiu	a1,v0,48
10000300:	944d0000 	lhu	t5,0(v0)
10000304:	944c0002 	lhu	t4,2(v0)
10000308:	944b0004 	lhu	t3,4(v0)
1000030c:	944a0006 	lhu	t2,6(v0)
10000310:	94490008 	lhu	t1,8(v0)
10000314:	9448000a 	lhu	t0,10(v0)
10000318:	9447000c 	lhu	a3,12(v0)
1000031c:	9446000e 	lhu	a2,14(v0)
10000320:	24420010 	addiu	v0,v0,16
10000324:	a46d0000 	sh	t5,0(v1)
10000328:	a46c0002 	sh	t4,2(v1)
1000032c:	a46b0004 	sh	t3,4(v1)
10000330:	a46a0006 	sh	t2,6(v1)
10000334:	a4690008 	sh	t1,8(v1)
10000338:	a468000a 	sh	t0,10(v1)
1000033c:	a467000c 	sh	a3,12(v1)
10000340:	a466000e 	sh	a2,14(v1)
10000344:	1445ffee 	bne	v0,a1,10000300 <gausian+0x14>
10000348:	24630010 	addiu	v1,v1,16
1000034c:	94420000 	lhu	v0,0(v0)
10000350:	00003821 	move	a3,zero
10000354:	a4620000 	sh	v0,0(v1)
10000358:	00002821 	move	a1,zero
1000035c:	24060005 	li	a2,5
10000360:	000710c0 	sll	v0,a3,0x3
10000364:	00071840 	sll	v1,a3,0x1
10000368:	00621821 	addu	v1,v1,v0
1000036c:	03a31821 	addu	v1,sp,v1
10000370:	00001021 	move	v0,zero
10000374:	00824821 	addu	t1,a0,v0
10000378:	84680000 	lh	t0,0(v1)
1000037c:	91290000 	lbu	t1,0(t1)
10000380:	24420001 	addiu	v0,v0,1
10000384:	01280018 	mult	t1,t0
10000388:	24630002 	addiu	v1,v1,2
1000038c:	00004012 	mflo	t0
10000390:	1446fff8 	bne	v0,a2,10000374 <gausian+0x88>
10000394:	00a82821 	addu	a1,a1,t0
10000398:	24e70001 	addiu	a3,a3,1
1000039c:	14e2fff0 	bne	a3,v0,10000360 <gausian+0x74>
100003a0:	24840005 	addiu	a0,a0,5
100003a4:	2403009f 	li	v1,159
100003a8:	00a3001a 	div	zero,a1,v1
100003ac:	27bd0038 	addiu	sp,sp,56
100003b0:	00002812 	mflo	a1
100003b4:	03e00008 	jr	ra
100003b8:	30a200ff 	andi	v0,a1,0xff

100003bc <isqrt>:
100003bc:	24050010 	li	a1,16
100003c0:	00001021 	move	v0,zero
100003c4:	00001821 	move	v1,zero
100003c8:	00021040 	sll	v0,v0,0x1
100003cc:	00043f82 	srl	a3,a0,0x1e
100003d0:	00023040 	sll	a2,v0,0x1
100003d4:	00031880 	sll	v1,v1,0x2
100003d8:	00e31821 	addu	v1,a3,v1
100003dc:	24c60001 	addiu	a2,a2,1
100003e0:	0066382b 	sltu	a3,v1,a2
100003e4:	24a5ffff 	addiu	a1,a1,-1
100003e8:	14e00003 	bnez	a3,100003f8 <isqrt+0x3c>
100003ec:	00042080 	sll	a0,a0,0x2
100003f0:	00661823 	subu	v1,v1,a2
100003f4:	24420001 	addiu	v0,v0,1
100003f8:	14a0fff3 	bnez	a1,100003c8 <isqrt+0xc>
100003fc:	00000000 	nop
10000400:	03e00008 	jr	ra
10000404:	00000000 	nop

10000408 <sobel>:
10000408:	3c061000 	lui	a2,0x1000
1000040c:	3c051000 	lui	a1,0x1000
10000410:	27bdffb8 	addiu	sp,sp,-72
10000414:	24c33ca8 	addiu	v1,a2,15528
10000418:	24a23cbc 	addiu	v0,a1,15548
1000041c:	94480006 	lhu	t0,6(v0)
10000420:	94470008 	lhu	a3,8(v0)
10000424:	946d000e 	lhu	t5,14(v1)
10000428:	946c0010 	lhu	t4,16(v1)
1000042c:	94790006 	lhu	t9,6(v1)
10000430:	94780008 	lhu	t8,8(v1)
10000434:	946f000a 	lhu	t7,10(v1)
10000438:	946e000c 	lhu	t6,12(v1)
1000043c:	944a0002 	lhu	t2,2(v0)
10000440:	94490004 	lhu	t1,4(v0)
10000444:	94ab3cbc 	lhu	t3,15548(a1)
10000448:	afb20040 	sw	s2,64(sp)
1000044c:	9445000e 	lhu	a1,14(v0)
10000450:	94d23ca8 	lhu	s2,15528(a2)
10000454:	afb1003c 	sw	s1,60(sp)
10000458:	9446000a 	lhu	a2,10(v0)
1000045c:	94710002 	lhu	s1,2(v1)
10000460:	afb00038 	sw	s0,56(sp)
10000464:	94700004 	lhu	s0,4(v1)
10000468:	94430010 	lhu	v1,16(v0)
1000046c:	9442000c 	lhu	v0,12(v0)
10000470:	afbf0044 	sw	ra,68(sp)
10000474:	a7ad0032 	sh	t5,50(sp)
10000478:	a7ac0034 	sh	t4,52(sp)
1000047c:	a7ab0010 	sh	t3,16(sp)
10000480:	a7b20024 	sh	s2,36(sp)
10000484:	a7b10026 	sh	s1,38(sp)
10000488:	a7b00028 	sh	s0,40(sp)
1000048c:	a7b9002a 	sh	t9,42(sp)
10000490:	a7b8002c 	sh	t8,44(sp)
10000494:	a7af002e 	sh	t7,46(sp)
10000498:	a7ae0030 	sh	t6,48(sp)
1000049c:	a7aa0012 	sh	t2,18(sp)
100004a0:	27ab0010 	addiu	t3,sp,16
100004a4:	a7a90014 	sh	t1,20(sp)
100004a8:	27ad0036 	addiu	t5,sp,54
100004ac:	a7a80016 	sh	t0,22(sp)
100004b0:	a7a70018 	sh	a3,24(sp)
100004b4:	a7a6001a 	sh	a2,26(sp)
100004b8:	a7a2001c 	sh	v0,28(sp)
100004bc:	27a80024 	addiu	t0,sp,36
100004c0:	a7a5001e 	sh	a1,30(sp)
100004c4:	a7a30020 	sh	v1,32(sp)
100004c8:	00003821 	move	a3,zero
100004cc:	00003021 	move	a2,zero
100004d0:	240c0006 	li	t4,6
100004d4:	00801821 	move	v1,a0
100004d8:	00001021 	move	v0,zero
100004dc:	01024821 	addu	t1,t0,v0
100004e0:	90650000 	lbu	a1,0(v1)
100004e4:	85290000 	lh	t1,0(t1)
100004e8:	01625021 	addu	t2,t3,v0
100004ec:	00a90018 	mult	a1,t1
100004f0:	854a0000 	lh	t2,0(t2)
100004f4:	24420002 	addiu	v0,v0,2
100004f8:	24630001 	addiu	v1,v1,1
100004fc:	00004812 	mflo	t1
10000500:	00c93021 	addu	a2,a2,t1
10000504:	00000000 	nop
10000508:	00aa0018 	mult	a1,t2
1000050c:	00002812 	mflo	a1
10000510:	144cfff2 	bne	v0,t4,100004dc <sobel+0xd4>
10000514:	00e53821 	addu	a3,a3,a1
10000518:	25080006 	addiu	t0,t0,6
1000051c:	24840003 	addiu	a0,a0,3
10000520:	150dffec 	bne	t0,t5,100004d4 <sobel+0xcc>
10000524:	256b0006 	addiu	t3,t3,6
10000528:	00e70018 	mult	a3,a3
1000052c:	00003812 	mflo	a3
	...
10000538:	00c60018 	mult	a2,a2
1000053c:	00003012 	mflo	a2
10000540:	0c0000ef 	jal	100003bc <isqrt>
10000544:	00e62021 	addu	a0,a3,a2
10000548:	28430100 	slti	v1,v0,256
1000054c:	1060000a 	beqz	v1,10000578 <sobel+0x170>
10000550:	00000000 	nop
10000554:	0441000f 	bgez	v0,10000594 <sobel+0x18c>
10000558:	304200ff 	andi	v0,v0,0xff
1000055c:	8fbf0044 	lw	ra,68(sp)
10000560:	00001021 	move	v0,zero
10000564:	8fb20040 	lw	s2,64(sp)
10000568:	8fb1003c 	lw	s1,60(sp)
1000056c:	8fb00038 	lw	s0,56(sp)
10000570:	03e00008 	jr	ra
10000574:	27bd0048 	addiu	sp,sp,72
10000578:	8fbf0044 	lw	ra,68(sp)
1000057c:	240200ff 	li	v0,255
10000580:	8fb20040 	lw	s2,64(sp)
10000584:	8fb1003c 	lw	s1,60(sp)
10000588:	8fb00038 	lw	s0,56(sp)
1000058c:	03e00008 	jr	ra
10000590:	27bd0048 	addiu	sp,sp,72
10000594:	8fbf0044 	lw	ra,68(sp)
10000598:	8fb20040 	lw	s2,64(sp)
1000059c:	8fb1003c 	lw	s1,60(sp)
100005a0:	8fb00038 	lw	s0,56(sp)
100005a4:	03e00008 	jr	ra
100005a8:	27bd0048 	addiu	sp,sp,72

100005ac <do_gausian>:
100005ac:	27bdff90 	addiu	sp,sp,-112
100005b0:	afb1004c 	sw	s1,76(sp)
100005b4:	afb00048 	sw	s0,72(sp)
100005b8:	afbf006c 	sw	ra,108(sp)
100005bc:	afbe0068 	sw	s8,104(sp)
100005c0:	afb70064 	sw	s7,100(sp)
100005c4:	afb60060 	sw	s6,96(sp)
100005c8:	afb5005c 	sw	s5,92(sp)
100005cc:	afb40058 	sw	s4,88(sp)
100005d0:	afb30054 	sw	s3,84(sp)
100005d4:	afb20050 	sw	s2,80(sp)
100005d8:	00c08021 	move	s0,a2
100005dc:	18c0003a 	blez	a2,100006c8 <do_gausian+0x11c>
100005e0:	00a08821 	move	s1,a1
100005e4:	3c141000 	lui	s4,0x1000
100005e8:	00051023 	negu	v0,a1
100005ec:	26944560 	addiu	s4,s4,17760
100005f0:	02841823 	subu	v1,s4,a0
100005f4:	00021040 	sll	v0,v0,0x1
100005f8:	00441023 	subu	v0,v0,a0
100005fc:	afa3003c 	sw	v1,60(sp)
10000600:	24c3ffff 	addiu	v1,a2,-1
10000604:	0080b021 	move	s6,a0
10000608:	afa00030 	sw	zero,48(sp)
1000060c:	afa20038 	sw	v0,56(sp)
10000610:	27b50029 	addiu	s5,sp,41
10000614:	24120005 	li	s2,5
10000618:	24beffff 	addiu	s8,a1,-1
1000061c:	afa30040 	sw	v1,64(sp)
10000620:	8fa30030 	lw	v1,48(sp)
10000624:	00000000 	nop
10000628:	28620002 	slti	v0,v1,2
1000062c:	1440003b 	bnez	v0,1000071c <do_gausian+0x170>
10000630:	00000000 	nop
10000634:	1a20001f 	blez	s1,100006b4 <do_gausian+0x108>
10000638:	00000000 	nop
1000063c:	8fa30038 	lw	v1,56(sp)
10000640:	00009821 	move	s3,zero
10000644:	0076b821 	addu	s7,v1,s6
10000648:	8fa3003c 	lw	v1,60(sp)
1000064c:	26f7fffe 	addiu	s7,s7,-2
10000650:	00761821 	addu	v1,v1,s6
10000654:	afa30034 	sw	v1,52(sp)
10000658:	2a620002 	slti	v0,s3,2
1000065c:	14400026 	bnez	v0,100006f8 <do_gausian+0x14c>
10000660:	027e102a 	slt	v0,s3,s8
10000664:	02f33821 	addu	a3,s7,s3
10000668:	27a60010 	addiu	a2,sp,16
1000066c:	02871821 	addu	v1,s4,a3
10000670:	00001021 	move	v0,zero
10000674:	90650000 	lbu	a1,0(v1)
10000678:	00c22021 	addu	a0,a2,v0
1000067c:	24420001 	addiu	v0,v0,1
10000680:	a0850000 	sb	a1,0(a0)
10000684:	1452fffb 	bne	v0,s2,10000674 <do_gausian+0xc8>
10000688:	00711821 	addu	v1,v1,s1
1000068c:	24c60005 	addiu	a2,a2,5
10000690:	14d5fff6 	bne	a2,s5,1000066c <do_gausian+0xc0>
10000694:	24e70001 	addiu	a3,a3,1
10000698:	0c0000bb 	jal	100002ec <gausian>
1000069c:	27a40010 	addiu	a0,sp,16
100006a0:	02d31821 	addu	v1,s6,s3
100006a4:	a0620000 	sb	v0,0(v1)
100006a8:	26730001 	addiu	s3,s3,1
100006ac:	1671ffeb 	bne	s3,s1,1000065c <do_gausian+0xb0>
100006b0:	2a620002 	slti	v0,s3,2
100006b4:	8fa30030 	lw	v1,48(sp)
100006b8:	02d1b021 	addu	s6,s6,s1
100006bc:	24630001 	addiu	v1,v1,1
100006c0:	1470ffd7 	bne	v1,s0,10000620 <do_gausian+0x74>
100006c4:	afa30030 	sw	v1,48(sp)
100006c8:	8fbf006c 	lw	ra,108(sp)
100006cc:	8fbe0068 	lw	s8,104(sp)
100006d0:	8fb70064 	lw	s7,100(sp)
100006d4:	8fb60060 	lw	s6,96(sp)
100006d8:	8fb5005c 	lw	s5,92(sp)
100006dc:	8fb40058 	lw	s4,88(sp)
100006e0:	8fb30054 	lw	s3,84(sp)
100006e4:	8fb20050 	lw	s2,80(sp)
100006e8:	8fb1004c 	lw	s1,76(sp)
100006ec:	8fb00048 	lw	s0,72(sp)
100006f0:	03e00008 	jr	ra
100006f4:	27bd0070 	addiu	sp,sp,112
100006f8:	1440ffdb 	bnez	v0,10000668 <do_gausian+0xbc>
100006fc:	02f33821 	addu	a3,s7,s3
10000700:	8fa30034 	lw	v1,52(sp)
10000704:	00000000 	nop
10000708:	00731021 	addu	v0,v1,s3
1000070c:	90430000 	lbu	v1,0(v0)
10000710:	02d31021 	addu	v0,s6,s3
10000714:	080001aa 	j	100006a8 <do_gausian+0xfc>
10000718:	a0430000 	sb	v1,0(v0)
1000071c:	8fa40040 	lw	a0,64(sp)
10000720:	00000000 	nop
10000724:	0064102a 	slt	v0,v1,a0
10000728:	1440ffc2 	bnez	v0,10000634 <do_gausian+0x88>
1000072c:	00000000 	nop
10000730:	8fa30030 	lw	v1,48(sp)
10000734:	02d1b021 	addu	s6,s6,s1
10000738:	24630001 	addiu	v1,v1,1
1000073c:	1470ffb8 	bne	v1,s0,10000620 <do_gausian+0x74>
10000740:	afa30030 	sw	v1,48(sp)
10000744:	080001b2 	j	100006c8 <do_gausian+0x11c>
10000748:	00000000 	nop

1000074c <do_sobel>:
1000074c:	27bdffa0 	addiu	sp,sp,-96
10000750:	afb20040 	sw	s2,64(sp)
10000754:	afb1003c 	sw	s1,60(sp)
10000758:	afb00038 	sw	s0,56(sp)
1000075c:	afbf005c 	sw	ra,92(sp)
10000760:	afbe0058 	sw	s8,88(sp)
10000764:	afb70054 	sw	s7,84(sp)
10000768:	afb60050 	sw	s6,80(sp)
1000076c:	afb5004c 	sw	s5,76(sp)
10000770:	afb40048 	sw	s4,72(sp)
10000774:	afb30044 	sw	s3,68(sp)
10000778:	00c08821 	move	s1,a2
1000077c:	00808021 	move	s0,a0
10000780:	18c00038 	blez	a2,10000864 <do_sobel+0x118>
10000784:	00a09021 	move	s2,a1
10000788:	00051823 	negu	v1,a1
1000078c:	afa30030 	sw	v1,48(sp)
10000790:	3c161000 	lui	s6,0x1000
10000794:	00051827 	nor	v1,zero,a1
10000798:	afa50024 	sw	a1,36(sp)
1000079c:	afa00020 	sw	zero,32(sp)
100007a0:	afa0002c 	sw	zero,44(sp)
100007a4:	afa30028 	sw	v1,40(sp)
100007a8:	26d64560 	addiu	s6,s6,17760
100007ac:	27b50019 	addiu	s5,sp,25
100007b0:	24130003 	li	s3,3
100007b4:	1a40001b 	blez	s2,10000824 <do_sobel+0xd8>
100007b8:	00000000 	nop
100007bc:	8fa30020 	lw	v1,32(sp)
100007c0:	8fa20024 	lw	v0,36(sp)
100007c4:	247effff 	addiu	s8,v1,-1
100007c8:	0062b821 	addu	s7,v1,v0
100007cc:	8fa20028 	lw	v0,40(sp)
100007d0:	0217b821 	addu	s7,s0,s7
100007d4:	0043a021 	addu	s4,v0,v1
100007d8:	27a40010 	addiu	a0,sp,16
100007dc:	02803821 	move	a3,s4
100007e0:	02c71821 	addu	v1,s6,a3
100007e4:	00001021 	move	v0,zero
100007e8:	90660000 	lbu	a2,0(v1)
100007ec:	00822821 	addu	a1,a0,v0
100007f0:	24420001 	addiu	v0,v0,1
100007f4:	a0a60000 	sb	a2,0(a1)
100007f8:	1453fffb 	bne	v0,s3,100007e8 <do_sobel+0x9c>
100007fc:	00721821 	addu	v1,v1,s2
10000800:	24840003 	addiu	a0,a0,3
10000804:	1495fff6 	bne	a0,s5,100007e0 <do_sobel+0x94>
10000808:	24e70001 	addiu	a3,a3,1
1000080c:	0c000102 	jal	10000408 <sobel>
10000810:	27a40010 	addiu	a0,sp,16
10000814:	02f41821 	addu	v1,s7,s4
10000818:	26940001 	addiu	s4,s4,1
1000081c:	169effee 	bne	s4,s8,100007d8 <do_sobel+0x8c>
10000820:	a0620001 	sb	v0,1(v1)
10000824:	8fa3002c 	lw	v1,44(sp)
10000828:	8fa20030 	lw	v0,48(sp)
1000082c:	24630001 	addiu	v1,v1,1
10000830:	afa3002c 	sw	v1,44(sp)
10000834:	8fa30024 	lw	v1,36(sp)
10000838:	00000000 	nop
1000083c:	00621821 	addu	v1,v1,v0
10000840:	afa30024 	sw	v1,36(sp)
10000844:	8fa30020 	lw	v1,32(sp)
10000848:	00000000 	nop
1000084c:	00721821 	addu	v1,v1,s2
10000850:	afa30020 	sw	v1,32(sp)
10000854:	8fa3002c 	lw	v1,44(sp)
10000858:	00000000 	nop
1000085c:	1471ffd5 	bne	v1,s1,100007b4 <do_sobel+0x68>
10000860:	00000000 	nop
10000864:	8fbf005c 	lw	ra,92(sp)
10000868:	8fbe0058 	lw	s8,88(sp)
1000086c:	8fb70054 	lw	s7,84(sp)
10000870:	8fb60050 	lw	s6,80(sp)
10000874:	8fb5004c 	lw	s5,76(sp)
10000878:	8fb40048 	lw	s4,72(sp)
1000087c:	8fb30044 	lw	s3,68(sp)
10000880:	8fb20040 	lw	s2,64(sp)
10000884:	8fb1003c 	lw	s1,60(sp)
10000888:	8fb00038 	lw	s0,56(sp)
1000088c:	03e00008 	jr	ra
10000890:	27bd0060 	addiu	sp,sp,96

10000894 <slave>:
10000894:	27bdf7b8 	addiu	sp,sp,-2120
10000898:	afbf0844 	sw	ra,2116(sp)
1000089c:	afb50840 	sw	s5,2112(sp)
100008a0:	afb4083c 	sw	s4,2108(sp)
100008a4:	afb30838 	sw	s3,2104(sp)
100008a8:	afb20834 	sw	s2,2100(sp)
100008ac:	afb10830 	sw	s1,2096(sp)
100008b0:	0c000e45 	jal	10003914 <hf_selfid>
100008b4:	afb0082c 	sw	s0,2092(sp)
100008b8:	0c000950 	jal	10002540 <hf_cpuid>
100008bc:	afa20820 	sw	v0,2080(sp)
100008c0:	00022880 	sll	a1,v0,0x2
100008c4:	00021100 	sll	v0,v0,0x4
100008c8:	00a21021 	addu	v0,a1,v0
100008cc:	00022880 	sll	a1,v0,0x2
100008d0:	00452821 	addu	a1,v0,a1
100008d4:	8fa40820 	lw	a0,2080(sp)
100008d8:	30a5fffc 	andi	a1,a1,0xfffc
100008dc:	0c000952 	jal	10002548 <hf_comm_create>
100008e0:	00003021 	move	a2,zero
100008e4:	14400035 	bnez	v0,100009bc <slave+0x128>
100008e8:	00000000 	nop
100008ec:	3c151000 	lui	s5,0x1000
100008f0:	27b3001a 	addiu	s3,sp,26
100008f4:	27b1041c 	addiu	s1,sp,1052
100008f8:	27b20018 	addiu	s2,sp,24
100008fc:	27b0001c 	addiu	s0,sp,28
10000900:	241401f4 	li	s4,500
10000904:	26b53cd0 	addiu	s5,s5,15568
10000908:	02602021 	move	a0,s3
1000090c:	02402821 	move	a1,s2
10000910:	02203021 	move	a2,s1
10000914:	24070400 	li	a3,1024
10000918:	0c000b5a 	jal	10002d68 <hf_recvack>
1000091c:	afa00010 	sw	zero,16(sp)
10000920:	3042ffff 	andi	v0,v0,0xffff
10000924:	02202821 	move	a1,s1
10000928:	02002021 	move	a0,s0
1000092c:	1440001e 	bnez	v0,100009a8 <slave+0x114>
10000930:	24060400 	li	a2,1024
10000934:	0c00068d 	jal	10001a34 <memcpy>
10000938:	00000000 	nop
1000093c:	02002021 	move	a0,s0
10000940:	24050020 	li	a1,32
10000944:	0c00016b 	jal	100005ac <do_gausian>
10000948:	24060020 	li	a2,32
1000094c:	02002021 	move	a0,s0
10000950:	24050020 	li	a1,32
10000954:	0c0001d3 	jal	1000074c <do_sobel>
10000958:	24060020 	li	a2,32
1000095c:	97a4001a 	lhu	a0,26(sp)
10000960:	24050003 	li	a1,3
10000964:	02003021 	move	a2,s0
10000968:	00003821 	move	a3,zero
1000096c:	24020400 	li	v0,1024
10000970:	afa20010 	sw	v0,16(sp)
10000974:	0c000b75 	jal	10002dd4 <hf_sendack>
10000978:	afb40014 	sw	s4,20(sp)
1000097c:	02602021 	move	a0,s3
10000980:	02402821 	move	a1,s2
10000984:	02203021 	move	a2,s1
10000988:	24070400 	li	a3,1024
1000098c:	0c000b5a 	jal	10002d68 <hf_recvack>
10000990:	afa00010 	sw	zero,16(sp)
10000994:	3042ffff 	andi	v0,v0,0xffff
10000998:	02202821 	move	a1,s1
1000099c:	02002021 	move	a0,s0
100009a0:	1040ffe4 	beqz	v0,10000934 <slave+0xa0>
100009a4:	24060400 	li	a2,1024
100009a8:	02a02021 	move	a0,s5
100009ac:	0c0006ad 	jal	10001ab4 <printf>
100009b0:	00402821 	move	a1,v0
100009b4:	08000243 	j	1000090c <slave+0x78>
100009b8:	02602021 	move	a0,s3
100009bc:	0c000bc9 	jal	10002f24 <panic>
100009c0:	240400ff 	li	a0,255
100009c4:	0800023c 	j	100008f0 <slave+0x5c>
100009c8:	3c151000 	lui	s5,0x1000

100009cc <putChunkInImage>:
100009cc:	00001021 	move	v0,zero
100009d0:	00e53823 	subu	a3,a3,a1
100009d4:	3c0b1001 	lui	t3,0x1001
100009d8:	24aa0021 	addiu	t2,a1,33
100009dc:	240c0441 	li	t4,1089
100009e0:	00a01821 	move	v1,a1
100009e4:	00e24821 	addu	t1,a3,v0
100009e8:	8d6d6294 	lw	t5,25236(t3)
100009ec:	01234021 	addu	t0,t1,v1
100009f0:	008d0018 	mult	a0,t5
100009f4:	00c37021 	addu	t6,a2,v1
100009f8:	910d0000 	lbu	t5,0(t0)
100009fc:	24630001 	addiu	v1,v1,1
10000a00:	00007812 	mflo	t7
10000a04:	01cf4021 	addu	t0,t6,t7
10000a08:	146afff7 	bne	v1,t2,100009e8 <putChunkInImage+0x1c>
10000a0c:	a10d0000 	sb	t5,0(t0)
10000a10:	24420021 	addiu	v0,v0,33
10000a14:	144cfff2 	bne	v0,t4,100009e0 <putChunkInImage+0x14>
10000a18:	24840001 	addiu	a0,a0,1
10000a1c:	03e00008 	jr	ra
10000a20:	00000000 	nop

10000a24 <master>:
10000a24:	27bdf770 	addiu	sp,sp,-2192
10000a28:	afb40878 	sw	s4,2168(sp)
10000a2c:	afb20870 	sw	s2,2160(sp)
10000a30:	3c141001 	lui	s4,0x1001
10000a34:	3c121001 	lui	s2,0x1001
10000a38:	8e846290 	lw	a0,25232(s4)
10000a3c:	8e426294 	lw	v0,25236(s2)
10000a40:	afbf088c 	sw	ra,2188(sp)
10000a44:	00820018 	mult	a0,v0
10000a48:	afb1086c 	sw	s1,2156(sp)
10000a4c:	afbe0888 	sw	s8,2184(sp)
10000a50:	afb70884 	sw	s7,2180(sp)
10000a54:	afb60880 	sw	s6,2176(sp)
10000a58:	afb5087c 	sw	s5,2172(sp)
10000a5c:	afb30874 	sw	s3,2164(sp)
10000a60:	afb00868 	sw	s0,2152(sp)
10000a64:	00002012 	mflo	a0
10000a68:	0c0006bd 	jal	10001af4 <malloc>
10000a6c:	3084ffff 	andi	a0,a0,0xffff
10000a70:	0c000e45 	jal	10003914 <hf_selfid>
10000a74:	00408821 	move	s1,v0
10000a78:	00402021 	move	a0,v0
10000a7c:	24050003 	li	a1,3
10000a80:	0c000952 	jal	10002548 <hf_comm_create>
10000a84:	00003021 	move	a2,zero
10000a88:	1440005e 	bnez	v0,10000c04 <master+0x1e0>
10000a8c:	3c041000 	lui	a0,0x1000
10000a90:	0c00032e 	jal	10000cb8 <delay_ms>
10000a94:	2404000a 	li	a0,10
10000a98:	3c041000 	lui	a0,0x1000
10000a9c:	24843da8 	addiu	a0,a0,15784
10000aa0:	0c0006ad 	jal	10001ab4 <printf>
10000aa4:	3c1e1000 	lui	s8,0x1000
10000aa8:	27b50024 	addiu	s5,sp,36
10000aac:	24160064 	li	s6,100
10000ab0:	24130001 	li	s3,1
10000ab4:	00008021 	move	s0,zero
10000ab8:	27de3db4 	addiu	s8,s8,15796
10000abc:	080002b6 	j	10000ad8 <master+0xb4>
10000ac0:	24170009 	li	s7,9
10000ac4:	aeb00000 	sw	s0,0(s5)
10000ac8:	aeb00004 	sw	s0,4(s5)
10000acc:	26d60064 	addiu	s6,s6,100
10000ad0:	12770018 	beq	s3,s7,10000b34 <master+0x110>
10000ad4:	26b50008 	addiu	s5,s5,8
10000ad8:	27a40464 	addiu	a0,sp,1124
10000adc:	27a50064 	addiu	a1,sp,100
10000ae0:	0c00068d 	jal	10001a34 <memcpy>
10000ae4:	24060400 	li	a2,1024
10000ae8:	02602021 	move	a0,s3
10000aec:	02c02821 	move	a1,s6
10000af0:	240203e8 	li	v0,1000
10000af4:	27a60464 	addiu	a2,sp,1124
10000af8:	24070404 	li	a3,1028
10000afc:	afa00010 	sw	zero,16(sp)
10000b00:	0c000b75 	jal	10002dd4 <hf_sendack>
10000b04:	afa20014 	sw	v0,20(sp)
10000b08:	3045ffff 	andi	a1,v0,0xffff
10000b0c:	26100020 	addiu	s0,s0,32
10000b10:	10a0ffec 	beqz	a1,10000ac4 <master+0xa0>
10000b14:	26730001 	addiu	s3,s3,1
10000b18:	0c0006ad 	jal	10001ab4 <printf>
10000b1c:	03c02021 	move	a0,s8
10000b20:	26d60064 	addiu	s6,s6,100
10000b24:	aeb00000 	sw	s0,0(s5)
10000b28:	aeb00004 	sw	s0,4(s5)
10000b2c:	1677ffea 	bne	s3,s7,10000ad8 <master+0xb4>
10000b30:	26b50008 	addiu	s5,s5,8
10000b34:	3c131000 	lui	s3,0x1000
10000b38:	24100100 	li	s0,256
10000b3c:	241503e8 	li	s5,1000
10000b40:	26733dd4 	addiu	s3,s3,15828
10000b44:	27a4001a 	addiu	a0,sp,26
10000b48:	27a50018 	addiu	a1,sp,24
10000b4c:	27a60464 	addiu	a2,sp,1124
10000b50:	24070400 	li	a3,1024
10000b54:	0c000b5a 	jal	10002d68 <hf_recvack>
10000b58:	afa00010 	sw	zero,16(sp)
10000b5c:	97a2001a 	lhu	v0,26(sp)
10000b60:	27a30018 	addiu	v1,sp,24
10000b64:	000210c0 	sll	v0,v0,0x3
10000b68:	00621021 	addu	v0,v1,v0
10000b6c:	8c440004 	lw	a0,4(v0)
10000b70:	8c450008 	lw	a1,8(v0)
10000b74:	27a70464 	addiu	a3,sp,1124
10000b78:	0c000273 	jal	100009cc <putChunkInImage>
10000b7c:	02203021 	move	a2,s1
10000b80:	8e426294 	lw	v0,25236(s2)
10000b84:	26100020 	addiu	s0,s0,32
10000b88:	0202102a 	slt	v0,s0,v0
10000b8c:	02602021 	move	a0,s3
10000b90:	10400006 	beqz	v0,10000bac <master+0x188>
10000b94:	02202821 	move	a1,s1
10000b98:	8e826290 	lw	v0,25232(s4)
10000b9c:	00000000 	nop
10000ba0:	0202102a 	slt	v0,s0,v0
10000ba4:	14400005 	bnez	v0,10000bbc <master+0x198>
10000ba8:	00000000 	nop
10000bac:	0c0006ad 	jal	10001ab4 <printf>
10000bb0:	00000000 	nop
10000bb4:	080002d2 	j	10000b48 <master+0x124>
10000bb8:	27a4001a 	addiu	a0,sp,26
10000bbc:	27a40464 	addiu	a0,sp,1124
10000bc0:	27a50064 	addiu	a1,sp,100
10000bc4:	0c00068d 	jal	10001a34 <memcpy>
10000bc8:	24060400 	li	a2,1024
10000bcc:	97a4001a 	lhu	a0,26(sp)
10000bd0:	27a60464 	addiu	a2,sp,1124
10000bd4:	00041100 	sll	v0,a0,0x4
10000bd8:	00042880 	sll	a1,a0,0x2
10000bdc:	00a22821 	addu	a1,a1,v0
10000be0:	00051080 	sll	v0,a1,0x2
10000be4:	00a22821 	addu	a1,a1,v0
10000be8:	30a5fffc 	andi	a1,a1,0xfffc
10000bec:	24070404 	li	a3,1028
10000bf0:	afa00010 	sw	zero,16(sp)
10000bf4:	0c000b75 	jal	10002dd4 <hf_sendack>
10000bf8:	afb50014 	sw	s5,20(sp)
10000bfc:	080002d2 	j	10000b48 <master+0x124>
10000c00:	27a4001a 	addiu	a0,sp,26
10000c04:	0c0006ad 	jal	10001ab4 <printf>
10000c08:	24843d8c 	addiu	a0,a0,15756
10000c0c:	0c000bc9 	jal	10002f24 <panic>
10000c10:	240400ff 	li	a0,255
10000c14:	080002a4 	j	10000a90 <master+0x6c>
10000c18:	00000000 	nop

10000c1c <app_main>:
10000c1c:	27bdffe0 	addiu	sp,sp,-32
10000c20:	afbf001c 	sw	ra,28(sp)
10000c24:	0c000950 	jal	10002540 <hf_cpuid>
10000c28:	00000000 	nop
10000c2c:	1040000f 	beqz	v0,10000c6c <app_main+0x50>
10000c30:	3c021000 	lui	v0,0x1000
10000c34:	24423df0 	addiu	v0,v0,15856
10000c38:	3c041000 	lui	a0,0x1000
10000c3c:	afa20010 	sw	v0,16(sp)
10000c40:	24840894 	addiu	a0,a0,2196
10000c44:	24024000 	li	v0,16384
10000c48:	00002821 	move	a1,zero
10000c4c:	00003021 	move	a2,zero
10000c50:	00003821 	move	a3,zero
10000c54:	0c000e4b 	jal	1000392c <hf_spawn>
10000c58:	afa20014 	sw	v0,20(sp)
10000c5c:	8fbf001c 	lw	ra,28(sp)
10000c60:	00000000 	nop
10000c64:	03e00008 	jr	ra
10000c68:	27bd0020 	addiu	sp,sp,32
10000c6c:	3c021000 	lui	v0,0x1000
10000c70:	24423de8 	addiu	v0,v0,15848
10000c74:	3c041000 	lui	a0,0x1000
10000c78:	afa20010 	sw	v0,16(sp)
10000c7c:	24840a24 	addiu	a0,a0,2596
10000c80:	24024000 	li	v0,16384
10000c84:	00002821 	move	a1,zero
10000c88:	00003021 	move	a2,zero
10000c8c:	00003821 	move	a3,zero
10000c90:	0c000e4b 	jal	1000392c <hf_spawn>
10000c94:	afa20014 	sw	v0,20(sp)
10000c98:	8fbf001c 	lw	ra,28(sp)
10000c9c:	00000000 	nop
10000ca0:	03e00008 	jr	ra
10000ca4:	27bd0020 	addiu	sp,sp,32

10000ca8 <putchar>:
10000ca8:	3c022000 	lui	v0,0x2000
10000cac:	ac4400d0 	sw	a0,208(v0)
10000cb0:	03e00008 	jr	ra
10000cb4:	00000000 	nop

10000cb8 <delay_ms>:
10000cb8:	3c022000 	lui	v0,0x2000
10000cbc:	8c420060 	lw	v0,96(v0)
10000cc0:	27bdfff0 	addiu	sp,sp,-16
10000cc4:	3c03017d 	lui	v1,0x17d
10000cc8:	afa20008 	sw	v0,8(sp)
10000ccc:	24637840 	addiu	v1,v1,30784
10000cd0:	afa00000 	sw	zero,0(sp)
10000cd4:	3c022000 	lui	v0,0x2000
10000cd8:	afa00004 	sw	zero,4(sp)
10000cdc:	08000349 	j	10000d24 <delay_ms+0x6c>
10000ce0:	240561a8 	li	a1,25000
10000ce4:	8fa8000c 	lw	t0,12(sp)
10000ce8:	8fa70008 	lw	a3,8(sp)
10000cec:	8fa60004 	lw	a2,4(sp)
10000cf0:	00000000 	nop
10000cf4:	01063021 	addu	a2,t0,a2
10000cf8:	00c33021 	addu	a2,a2,v1
10000cfc:	00c73023 	subu	a2,a2,a3
10000d00:	afa60004 	sw	a2,4(sp)
10000d04:	8fa6000c 	lw	a2,12(sp)
10000d08:	00000000 	nop
10000d0c:	afa60008 	sw	a2,8(sp)
10000d10:	8fa60004 	lw	a2,4(sp)
10000d14:	00000000 	nop
10000d18:	2cc661a8 	sltiu	a2,a2,25000
10000d1c:	10c0001e 	beqz	a2,10000d98 <delay_ms+0xe0>
10000d20:	00000000 	nop
10000d24:	8fa60000 	lw	a2,0(sp)
10000d28:	00000000 	nop
10000d2c:	00c4302b 	sltu	a2,a2,a0
10000d30:	10c00029 	beqz	a2,10000dd8 <delay_ms+0x120>
10000d34:	00000000 	nop
10000d38:	8c460060 	lw	a2,96(v0)
10000d3c:	00000000 	nop
10000d40:	afa6000c 	sw	a2,12(sp)
10000d44:	8fa7000c 	lw	a3,12(sp)
10000d48:	8fa60008 	lw	a2,8(sp)
10000d4c:	00000000 	nop
10000d50:	00e6302b 	sltu	a2,a3,a2
10000d54:	14c0ffe3 	bnez	a2,10000ce4 <delay_ms+0x2c>
10000d58:	00000000 	nop
10000d5c:	8fa6000c 	lw	a2,12(sp)
10000d60:	8fa70008 	lw	a3,8(sp)
10000d64:	8fa80004 	lw	t0,4(sp)
10000d68:	00000000 	nop
10000d6c:	01063021 	addu	a2,t0,a2
10000d70:	00c73023 	subu	a2,a2,a3
10000d74:	afa60004 	sw	a2,4(sp)
10000d78:	8fa6000c 	lw	a2,12(sp)
10000d7c:	00000000 	nop
10000d80:	afa60008 	sw	a2,8(sp)
10000d84:	8fa60004 	lw	a2,4(sp)
10000d88:	00000000 	nop
10000d8c:	2cc661a8 	sltiu	a2,a2,25000
10000d90:	14c0ffe4 	bnez	a2,10000d24 <delay_ms+0x6c>
10000d94:	00000000 	nop
10000d98:	8fa70004 	lw	a3,4(sp)
10000d9c:	8fa60000 	lw	a2,0(sp)
10000da0:	00e5001b 	divu	zero,a3,a1
10000da4:	00004012 	mflo	t0
10000da8:	01063021 	addu	a2,t0,a2
10000dac:	afa60000 	sw	a2,0(sp)
10000db0:	8fa60004 	lw	a2,4(sp)
10000db4:	00000000 	nop
10000db8:	00c5001b 	divu	zero,a2,a1
10000dbc:	00003010 	mfhi	a2
10000dc0:	afa60004 	sw	a2,4(sp)
10000dc4:	8fa60000 	lw	a2,0(sp)
10000dc8:	00000000 	nop
10000dcc:	00c4302b 	sltu	a2,a2,a0
10000dd0:	14c0ffd9 	bnez	a2,10000d38 <delay_ms+0x80>
10000dd4:	00000000 	nop
10000dd8:	03e00008 	jr	ra
10000ddc:	27bd0010 	addiu	sp,sp,16

10000de0 <_hardware_init>:
10000de0:	3c022000 	lui	v0,0x2000
10000de4:	3c03a5a5 	lui	v1,0xa5a5
10000de8:	8c4400e0 	lw	a0,224(v0)
10000dec:	3463a5a5 	ori	v1,v1,0xa5a5
10000df0:	14830006 	bne	a0,v1,10000e0c <_hardware_init+0x2c>
10000df4:	3c03017d 	lui	v1,0x17d
10000df8:	24637840 	addiu	v1,v1,30784
10000dfc:	ac4300a0 	sw	v1,160(v0)
10000e00:	3c030004 	lui	v1,0x4
10000e04:	ac4300b0 	sw	v1,176(v0)
10000e08:	3c022000 	lui	v0,0x2000
10000e0c:	ac400010 	sw	zero,16(v0)
10000e10:	03e00008 	jr	ra
10000e14:	00000000 	nop

10000e18 <_vm_init>:
10000e18:	3c041000 	lui	a0,0x1000
10000e1c:	27bdffe8 	addiu	sp,sp,-24
10000e20:	afbf0014 	sw	ra,20(sp)
10000e24:	0c00048a 	jal	10001228 <kprintf>
10000e28:	24843df8 	addiu	a0,a0,15864
10000e2c:	3c041001 	lui	a0,0x1001
10000e30:	3c050007 	lui	a1,0x7
10000e34:	8fbf0014 	lw	ra,20(sp)
10000e38:	248474ac 	addiu	a0,a0,29868
10000e3c:	34a5a120 	ori	a1,a1,0xa120
10000e40:	08000845 	j	10002114 <heapinit>
10000e44:	27bd0018 	addiu	sp,sp,24

10000e48 <_sched_init>:
10000e48:	3c041000 	lui	a0,0x1000
10000e4c:	0800048a 	j	10001228 <kprintf>
10000e50:	24843e0c 	addiu	a0,a0,15884

10000e54 <_irq_init>:
10000e54:	3c041000 	lui	a0,0x1000
10000e58:	0800048a 	j	10001228 <kprintf>
10000e5c:	24843e20 	addiu	a0,a0,15904

10000e60 <_timer_init>:
10000e60:	27bdffe8 	addiu	sp,sp,-24
10000e64:	3c041000 	lui	a0,0x1000
10000e68:	afb00010 	sw	s0,16(sp)
10000e6c:	24843e34 	addiu	a0,a0,15924
10000e70:	afbf0014 	sw	ra,20(sp)
10000e74:	0c00048a 	jal	10001228 <kprintf>
10000e78:	3c101000 	lui	s0,0x1000
10000e7c:	2605369c 	addiu	a1,s0,13980
10000e80:	0c00040c 	jal	10001030 <_irq_register>
10000e84:	24040008 	li	a0,8
10000e88:	2605369c 	addiu	a1,s0,13980
10000e8c:	0c00040c 	jal	10001030 <_irq_register>
10000e90:	24040004 	li	a0,4
10000e94:	3c022000 	lui	v0,0x2000
10000e98:	8c430010 	lw	v1,16(v0)
10000e9c:	8fbf0014 	lw	ra,20(sp)
10000ea0:	34630008 	ori	v1,v1,0x8
10000ea4:	8fb00010 	lw	s0,16(sp)
10000ea8:	ac430010 	sw	v1,16(v0)
10000eac:	03e00008 	jr	ra
10000eb0:	27bd0018 	addiu	sp,sp,24

10000eb4 <_device_init>:
10000eb4:	3c041000 	lui	a0,0x1000
10000eb8:	27bdffe8 	addiu	sp,sp,-24
10000ebc:	afbf0014 	sw	ra,20(sp)
10000ec0:	0c00048a 	jal	10001228 <kprintf>
10000ec4:	24843e48 	addiu	a0,a0,15944
10000ec8:	8fbf0014 	lw	ra,20(sp)
10000ecc:	0800090f 	j	1000243c <ni_init>
10000ed0:	27bd0018 	addiu	sp,sp,24

10000ed4 <_task_init>:
10000ed4:	3c041000 	lui	a0,0x1000
10000ed8:	0800048a 	j	10001228 <kprintf>
10000edc:	24843e60 	addiu	a0,a0,15968

10000ee0 <_set_task_sp>:
10000ee0:	3084ffff 	andi	a0,a0,0xffff
10000ee4:	00041880 	sll	v1,a0,0x2
10000ee8:	00041140 	sll	v0,a0,0x5
10000eec:	00621021 	addu	v0,v1,v0
10000ef0:	00442021 	addu	a0,v0,a0
10000ef4:	3c021001 	lui	v0,0x1001
10000ef8:	00042080 	sll	a0,a0,0x2
10000efc:	24426354 	addiu	v0,v0,25428
10000f00:	00442021 	addu	a0,v0,a0
10000f04:	03e00008 	jr	ra
10000f08:	ac85005c 	sw	a1,92(a0)

10000f0c <_get_task_sp>:
10000f0c:	3084ffff 	andi	a0,a0,0xffff
10000f10:	00041880 	sll	v1,a0,0x2
10000f14:	00041140 	sll	v0,a0,0x5
10000f18:	00621021 	addu	v0,v1,v0
10000f1c:	00442021 	addu	a0,v0,a0
10000f20:	3c021001 	lui	v0,0x1001
10000f24:	24426354 	addiu	v0,v0,25428
10000f28:	00042080 	sll	a0,a0,0x2
10000f2c:	00442021 	addu	a0,v0,a0
10000f30:	8c82005c 	lw	v0,92(a0)
10000f34:	03e00008 	jr	ra
10000f38:	00000000 	nop

10000f3c <_set_task_tp>:
10000f3c:	3084ffff 	andi	a0,a0,0xffff
10000f40:	00041880 	sll	v1,a0,0x2
10000f44:	00041140 	sll	v0,a0,0x5
10000f48:	00621021 	addu	v0,v1,v0
10000f4c:	00442021 	addu	a0,v0,a0
10000f50:	3c021001 	lui	v0,0x1001
10000f54:	00042080 	sll	a0,a0,0x2
10000f58:	24426354 	addiu	v0,v0,25428
10000f5c:	00442021 	addu	a0,v0,a0
10000f60:	03e00008 	jr	ra
10000f64:	ac850060 	sw	a1,96(a0)

10000f68 <_cpu_idle>:
10000f68:	03e00008 	jr	ra
10000f6c:	00000000 	nop

10000f70 <_read_us>:
10000f70:	3c091001 	lui	t1,0x1001
10000f74:	8d2262a0 	lw	v0,25248(t1)
10000f78:	27bdffe8 	addiu	sp,sp,-24
10000f7c:	afbf0014 	sw	ra,20(sp)
10000f80:	14400015 	bnez	v0,10000fd8 <_read_us+0x68>
10000f84:	3c032000 	lui	v1,0x2000
10000f88:	8c620060 	lw	v0,96(v1)
10000f8c:	3c021001 	lui	v0,0x1001
10000f90:	8c4262a4 	lw	v0,25252(v0)
10000f94:	8c630060 	lw	v1,96(v1)
10000f98:	3c032000 	lui	v1,0x2000
10000f9c:	8c6a0060 	lw	t2,96(v1)
10000fa0:	8c680060 	lw	t0,96(v1)
10000fa4:	00402021 	move	a0,v0
10000fa8:	3c031001 	lui	v1,0x1001
10000fac:	01002821 	move	a1,t0
10000fb0:	24070019 	li	a3,25
10000fb4:	00003021 	move	a2,zero
10000fb8:	ad2a62a0 	sw	t2,25248(t1)
10000fbc:	ac6262a8 	sw	v0,25256(v1)
10000fc0:	0c000704 	jal	10001c10 <__udivdi3>
10000fc4:	ac6862ac 	sw	t0,25260(v1)
10000fc8:	8fbf0014 	lw	ra,20(sp)
10000fcc:	00000000 	nop
10000fd0:	03e00008 	jr	ra
10000fd4:	27bd0018 	addiu	sp,sp,24
10000fd8:	8c630060 	lw	v1,96(v1)
10000fdc:	00000000 	nop
10000fe0:	0062102b 	sltu	v0,v1,v0
10000fe4:	10400007 	beqz	v0,10001004 <_read_us+0x94>
10000fe8:	00000000 	nop
10000fec:	3c031001 	lui	v1,0x1001
10000ff0:	8c6262a4 	lw	v0,25252(v1)
10000ff4:	00000000 	nop
10000ff8:	24420001 	addiu	v0,v0,1
10000ffc:	080003e6 	j	10000f98 <_read_us+0x28>
10001000:	ac6262a4 	sw	v0,25252(v1)
10001004:	3c021001 	lui	v0,0x1001
10001008:	8c4262a4 	lw	v0,25252(v0)
1000100c:	080003e7 	j	10000f9c <_read_us+0x2c>
10001010:	3c032000 	lui	v1,0x2000

10001014 <_timer_reset>:
10001014:	3c022000 	lui	v0,0x2000
10001018:	8c430010 	lw	v1,16(v0)
1000101c:	00000000 	nop
10001020:	3863000c 	xori	v1,v1,0xc
10001024:	ac430010 	sw	v1,16(v0)
10001028:	080003dc 	j	10000f70 <_read_us>
1000102c:	00000000 	nop

10001030 <_irq_register>:
10001030:	3c031001 	lui	v1,0x1001
10001034:	246362b0 	addiu	v1,v1,25264
10001038:	00001021 	move	v0,zero
1000103c:	24080001 	li	t0,1
10001040:	24070020 	li	a3,32
10001044:	00483004 	sllv	a2,t0,v0
10001048:	00c43024 	and	a2,a2,a0
1000104c:	10c00002 	beqz	a2,10001058 <_irq_register+0x28>
10001050:	24420001 	addiu	v0,v0,1
10001054:	ac650000 	sw	a1,0(v1)
10001058:	1447fffa 	bne	v0,a3,10001044 <_irq_register+0x14>
1000105c:	24630004 	addiu	v1,v1,4
10001060:	03e00008 	jr	ra
10001064:	00000000 	nop

10001068 <_irq_handler>:
10001068:	3c021009 	lui	v0,0x1009
1000106c:	244215cc 	addiu	v0,v0,5580
10001070:	8c430008 	lw	v1,8(v0)
10001074:	27bdffe0 	addiu	sp,sp,-32
10001078:	afb10014 	sw	s1,20(sp)
1000107c:	24630001 	addiu	v1,v1,1
10001080:	3c111001 	lui	s1,0x1001
10001084:	afb20018 	sw	s2,24(sp)
10001088:	afb00010 	sw	s0,16(sp)
1000108c:	afbf001c 	sw	ra,28(sp)
10001090:	00808021 	move	s0,a0
10001094:	00a09021 	move	s2,a1
10001098:	ac430008 	sw	v1,8(v0)
1000109c:	263162b0 	addiu	s1,s1,25264
100010a0:	32020001 	andi	v0,s0,0x1
100010a4:	10400007 	beqz	v0,100010c4 <_irq_handler+0x5c>
100010a8:	00108042 	srl	s0,s0,0x1
100010ac:	8e220000 	lw	v0,0(s1)
100010b0:	00000000 	nop
100010b4:	10400003 	beqz	v0,100010c4 <_irq_handler+0x5c>
100010b8:	02402021 	move	a0,s2
100010bc:	0040f809 	jalr	v0
100010c0:	00000000 	nop
100010c4:	1600fff6 	bnez	s0,100010a0 <_irq_handler+0x38>
100010c8:	26310004 	addiu	s1,s1,4
100010cc:	8fbf001c 	lw	ra,28(sp)
100010d0:	8fb20018 	lw	s2,24(sp)
100010d4:	8fb10014 	lw	s1,20(sp)
100010d8:	8fb00010 	lw	s0,16(sp)
100010dc:	03e00008 	jr	ra
100010e0:	27bd0020 	addiu	sp,sp,32

100010e4 <_irq_mask_set>:
100010e4:	27bdffe8 	addiu	sp,sp,-24
100010e8:	afb00010 	sw	s0,16(sp)
100010ec:	00808021 	move	s0,a0
100010f0:	afbf0014 	sw	ra,20(sp)
100010f4:	0c00007b 	jal	100001ec <_interrupt_set>
100010f8:	00002021 	move	a0,zero
100010fc:	3c032000 	lui	v1,0x2000
10001100:	8c650010 	lw	a1,16(v1)
10001104:	8fbf0014 	lw	ra,20(sp)
10001108:	02058025 	or	s0,s0,a1
1000110c:	ac700010 	sw	s0,16(v1)
10001110:	00402021 	move	a0,v0
10001114:	8fb00010 	lw	s0,16(sp)
10001118:	0800007b 	j	100001ec <_interrupt_set>
1000111c:	27bd0018 	addiu	sp,sp,24

10001120 <kitoa.part.0>:
10001120:	24020010 	li	v0,16
10001124:	10a20023 	beq	a1,v0,100011b4 <kitoa.part.0+0x94>
10001128:	00803021 	move	a2,a0
1000112c:	04800034 	bltz	a0,10001200 <kitoa.part.0+0xe0>
10001130:	00000000 	nop
10001134:	10800019 	beqz	a0,1000119c <kitoa.part.0+0x7c>
10001138:	00004021 	move	t0,zero
1000113c:	3c021001 	lui	v0,0x1001
10001140:	3c071000 	lui	a3,0x1000
10001144:	2403001e 	li	v1,30
10001148:	24426330 	addiu	v0,v0,25392
1000114c:	08000457 	j	1000115c <kitoa.part.0+0x3c>
10001150:	24e73e74 	addiu	a3,a3,15988
10001154:	1060000b 	beqz	v1,10001184 <kitoa.part.0+0x64>
10001158:	00000000 	nop
1000115c:	00c5001a 	div	zero,a2,a1
10001160:	00432021 	addu	a0,v0,v1
10001164:	2463ffff 	addiu	v1,v1,-1
10001168:	00003010 	mfhi	a2
1000116c:	00e63021 	addu	a2,a3,a2
10001170:	90c90000 	lbu	t1,0(a2)
10001174:	00005012 	mflo	t2
10001178:	00003012 	mflo	a2
1000117c:	1540fff5 	bnez	t2,10001154 <kitoa.part.0+0x34>
10001180:	a0890000 	sb	t1,0(a0)
10001184:	11000008 	beqz	t0,100011a8 <kitoa.part.0+0x88>
10001188:	00432021 	addu	a0,v0,v1
1000118c:	2405002d 	li	a1,45
10001190:	a0850000 	sb	a1,0(a0)
10001194:	03e00008 	jr	ra
10001198:	00431021 	addu	v0,v0,v1
1000119c:	3c021001 	lui	v0,0x1001
100011a0:	2403001e 	li	v1,30
100011a4:	24426330 	addiu	v0,v0,25392
100011a8:	24630001 	addiu	v1,v1,1
100011ac:	03e00008 	jr	ra
100011b0:	00431021 	addu	v0,v0,v1
100011b4:	10800018 	beqz	a0,10001218 <kitoa.part.0+0xf8>
100011b8:	3c071000 	lui	a3,0x1000
100011bc:	3c021001 	lui	v0,0x1001
100011c0:	2403001e 	li	v1,30
100011c4:	24426330 	addiu	v0,v0,25392
100011c8:	08000476 	j	100011d8 <kitoa.part.0+0xb8>
100011cc:	24e73e74 	addiu	a3,a3,15988
100011d0:	1060000e 	beqz	v1,1000120c <kitoa.part.0+0xec>
100011d4:	00000000 	nop
100011d8:	30c4000f 	andi	a0,a2,0xf
100011dc:	00e42021 	addu	a0,a3,a0
100011e0:	90850000 	lbu	a1,0(a0)
100011e4:	00063102 	srl	a2,a2,0x4
100011e8:	00432021 	addu	a0,v0,v1
100011ec:	a0850000 	sb	a1,0(a0)
100011f0:	14c0fff7 	bnez	a2,100011d0 <kitoa.part.0+0xb0>
100011f4:	2463ffff 	addiu	v1,v1,-1
100011f8:	0800046b 	j	100011ac <kitoa.part.0+0x8c>
100011fc:	24630001 	addiu	v1,v1,1
10001200:	00043023 	negu	a2,a0
10001204:	0800044f 	j	1000113c <kitoa.part.0+0x1c>
10001208:	24080001 	li	t0,1
1000120c:	24030001 	li	v1,1
10001210:	03e00008 	jr	ra
10001214:	00431021 	addu	v0,v0,v1
10001218:	3c021001 	lui	v0,0x1001
1000121c:	2403001f 	li	v1,31
10001220:	08000465 	j	10001194 <kitoa.part.0+0x74>
10001224:	24426330 	addiu	v0,v0,25392

10001228 <kprintf>:
10001228:	27bdffc0 	addiu	sp,sp,-64
1000122c:	27a20044 	addiu	v0,sp,68
10001230:	afb60034 	sw	s6,52(sp)
10001234:	afb50030 	sw	s5,48(sp)
10001238:	afb4002c 	sw	s4,44(sp)
1000123c:	afb30028 	sw	s3,40(sp)
10001240:	afb20024 	sw	s2,36(sp)
10001244:	afb10020 	sw	s1,32(sp)
10001248:	afb0001c 	sw	s0,28(sp)
1000124c:	afbf003c 	sw	ra,60(sp)
10001250:	afb70038 	sw	s7,56(sp)
10001254:	afa50044 	sw	a1,68(sp)
10001258:	afa60048 	sw	a2,72(sp)
1000125c:	afa7004c 	sw	a3,76(sp)
10001260:	00808021 	move	s0,a0
10001264:	afa20010 	sw	v0,16(sp)
10001268:	0040a821 	move	s5,v0
1000126c:	24110025 	li	s1,37
10001270:	24120064 	li	s2,100
10001274:	3c141000 	lui	s4,0x1000
10001278:	24130073 	li	s3,115
1000127c:	3c161000 	lui	s6,0x1000
10001280:	82040000 	lb	a0,0(s0)
10001284:	00000000 	nop
10001288:	10800009 	beqz	a0,100012b0 <kprintf+0x88>
1000128c:	00000000 	nop
10001290:	10910013 	beq	a0,s1,100012e0 <kprintf+0xb8>
10001294:	00000000 	nop
10001298:	0c00032a 	jal	10000ca8 <putchar>
1000129c:	26100001 	addiu	s0,s0,1
100012a0:	82040000 	lb	a0,0(s0)
100012a4:	00000000 	nop
100012a8:	1480fff9 	bnez	a0,10001290 <kprintf+0x68>
100012ac:	00000000 	nop
100012b0:	8fbf003c 	lw	ra,60(sp)
100012b4:	00001021 	move	v0,zero
100012b8:	8fb70038 	lw	s7,56(sp)
100012bc:	8fb60034 	lw	s6,52(sp)
100012c0:	8fb50030 	lw	s5,48(sp)
100012c4:	8fb4002c 	lw	s4,44(sp)
100012c8:	8fb30028 	lw	s3,40(sp)
100012cc:	8fb20024 	lw	s2,36(sp)
100012d0:	8fb10020 	lw	s1,32(sp)
100012d4:	8fb0001c 	lw	s0,28(sp)
100012d8:	03e00008 	jr	ra
100012dc:	27bd0040 	addiu	sp,sp,64
100012e0:	82020001 	lb	v0,1(s0)
100012e4:	00000000 	nop
100012e8:	10520030 	beq	v0,s2,100013ac <kprintf+0x184>
100012ec:	28430065 	slti	v1,v0,101
100012f0:	10600009 	beqz	v1,10001318 <kprintf+0xf0>
100012f4:	00000000 	nop
100012f8:	10510043 	beq	v0,s1,10001408 <kprintf+0x1e0>
100012fc:	24030063 	li	v1,99
10001300:	1043003b 	beq	v0,v1,100013f0 <kprintf+0x1c8>
10001304:	00000000 	nop
10001308:	0c00032a 	jal	10000ca8 <putchar>
1000130c:	2404003f 	li	a0,63
10001310:	080004a0 	j	10001280 <kprintf+0x58>
10001314:	26100002 	addiu	s0,s0,2
10001318:	10530014 	beq	v0,s3,1000136c <kprintf+0x144>
1000131c:	24030078 	li	v1,120
10001320:	1443fff9 	bne	v0,v1,10001308 <kprintf+0xe0>
10001324:	00000000 	nop
10001328:	8ea40000 	lw	a0,0(s5)
1000132c:	00000000 	nop
10001330:	14800039 	bnez	a0,10001418 <kprintf+0x1f0>
10001334:	26b50004 	addiu	s5,s5,4
10001338:	26973f48 	addiu	s7,s4,16200
1000133c:	82e40000 	lb	a0,0(s7)
10001340:	00000000 	nop
10001344:	1080fff2 	beqz	a0,10001310 <kprintf+0xe8>
10001348:	00000000 	nop
1000134c:	0c00032a 	jal	10000ca8 <putchar>
10001350:	26f70001 	addiu	s7,s7,1
10001354:	82e40000 	lb	a0,0(s7)
10001358:	00000000 	nop
1000135c:	1480fffb 	bnez	a0,1000134c <kprintf+0x124>
10001360:	00000000 	nop
10001364:	080004a0 	j	10001280 <kprintf+0x58>
10001368:	26100002 	addiu	s0,s0,2
1000136c:	8eb70000 	lw	s7,0(s5)
10001370:	00000000 	nop
10001374:	12e00030 	beqz	s7,10001438 <kprintf+0x210>
10001378:	26b50004 	addiu	s5,s5,4
1000137c:	82e40000 	lb	a0,0(s7)
10001380:	00000000 	nop
10001384:	1080ffe2 	beqz	a0,10001310 <kprintf+0xe8>
10001388:	26f70001 	addiu	s7,s7,1
1000138c:	0c00032a 	jal	10000ca8 <putchar>
10001390:	26f70001 	addiu	s7,s7,1
10001394:	82e4ffff 	lb	a0,-1(s7)
10001398:	00000000 	nop
1000139c:	1480fffb 	bnez	a0,1000138c <kprintf+0x164>
100013a0:	00000000 	nop
100013a4:	080004a0 	j	10001280 <kprintf+0x58>
100013a8:	26100002 	addiu	s0,s0,2
100013ac:	8ea40000 	lw	a0,0(s5)
100013b0:	00000000 	nop
100013b4:	1480001c 	bnez	a0,10001428 <kprintf+0x200>
100013b8:	26b50004 	addiu	s5,s5,4
100013bc:	26973f48 	addiu	s7,s4,16200
100013c0:	82e40000 	lb	a0,0(s7)
100013c4:	00000000 	nop
100013c8:	1080ffd1 	beqz	a0,10001310 <kprintf+0xe8>
100013cc:	00000000 	nop
100013d0:	0c00032a 	jal	10000ca8 <putchar>
100013d4:	26f70001 	addiu	s7,s7,1
100013d8:	82e40000 	lb	a0,0(s7)
100013dc:	00000000 	nop
100013e0:	1480fffb 	bnez	a0,100013d0 <kprintf+0x1a8>
100013e4:	00000000 	nop
100013e8:	080004a0 	j	10001280 <kprintf+0x58>
100013ec:	26100002 	addiu	s0,s0,2
100013f0:	82a40003 	lb	a0,3(s5)
100013f4:	26100002 	addiu	s0,s0,2
100013f8:	0c00032a 	jal	10000ca8 <putchar>
100013fc:	26b50004 	addiu	s5,s5,4
10001400:	080004a0 	j	10001280 <kprintf+0x58>
10001404:	00000000 	nop
10001408:	0c00032a 	jal	10000ca8 <putchar>
1000140c:	24040025 	li	a0,37
10001410:	080004a0 	j	10001280 <kprintf+0x58>
10001414:	26100002 	addiu	s0,s0,2
10001418:	0c000448 	jal	10001120 <kitoa.part.0>
1000141c:	24050010 	li	a1,16
10001420:	080004cf 	j	1000133c <kprintf+0x114>
10001424:	0040b821 	move	s7,v0
10001428:	0c000448 	jal	10001120 <kitoa.part.0>
1000142c:	2405000a 	li	a1,10
10001430:	080004f0 	j	100013c0 <kprintf+0x198>
10001434:	0040b821 	move	s7,v0
10001438:	080004df 	j	1000137c <kprintf+0x154>
1000143c:	26d73e88 	addiu	s7,s6,16008

10001440 <printchar>:
10001440:	10800009 	beqz	a0,10001468 <printchar+0x28>
10001444:	00000000 	nop
10001448:	8c820000 	lw	v0,0(a0)
1000144c:	00000000 	nop
10001450:	a0450000 	sb	a1,0(v0)
10001454:	8c820000 	lw	v0,0(a0)
10001458:	00000000 	nop
1000145c:	24420001 	addiu	v0,v0,1
10001460:	03e00008 	jr	ra
10001464:	ac820000 	sw	v0,0(a0)
10001468:	0800032a 	j	10000ca8 <putchar>
1000146c:	00a02021 	move	a0,a1

10001470 <prints>:
10001470:	27bdffd8 	addiu	sp,sp,-40
10001474:	afb20018 	sw	s2,24(sp)
10001478:	afb10014 	sw	s1,20(sp)
1000147c:	afb00010 	sw	s0,16(sp)
10001480:	afbf0024 	sw	ra,36(sp)
10001484:	afb40020 	sw	s4,32(sp)
10001488:	afb3001c 	sw	s3,28(sp)
1000148c:	00c09021 	move	s2,a2
10001490:	00808021 	move	s0,a0
10001494:	18c00035 	blez	a2,1000156c <prints+0xfc>
10001498:	00a08821 	move	s1,a1
1000149c:	80a20000 	lb	v0,0(a1)
100014a0:	00000000 	nop
100014a4:	10400040 	beqz	v0,100015a8 <prints+0x138>
100014a8:	00001021 	move	v0,zero
100014ac:	24420001 	addiu	v0,v0,1
100014b0:	02221821 	addu	v1,s1,v0
100014b4:	80630000 	lb	v1,0(v1)
100014b8:	00000000 	nop
100014bc:	1460fffc 	bnez	v1,100014b0 <prints+0x40>
100014c0:	24420001 	addiu	v0,v0,1
100014c4:	2442ffff 	addiu	v0,v0,-1
100014c8:	0052182a 	slt	v1,v0,s2
100014cc:	14600002 	bnez	v1,100014d8 <prints+0x68>
100014d0:	02429023 	subu	s2,s2,v0
100014d4:	00009021 	move	s2,zero
100014d8:	30e20002 	andi	v0,a3,0x2
100014dc:	10400023 	beqz	v0,1000156c <prints+0xfc>
100014e0:	00000000 	nop
100014e4:	30e70001 	andi	a3,a3,0x1
100014e8:	10e00023 	beqz	a3,10001578 <prints+0x108>
100014ec:	24140030 	li	s4,48
100014f0:	00009821 	move	s3,zero
100014f4:	82250000 	lb	a1,0(s1)
100014f8:	00000000 	nop
100014fc:	10a00009 	beqz	a1,10001524 <prints+0xb4>
10001500:	02338823 	subu	s1,s1,s3
10001504:	02002021 	move	a0,s0
10001508:	0c000510 	jal	10001440 <printchar>
1000150c:	26730001 	addiu	s3,s3,1
10001510:	02331021 	addu	v0,s1,s3
10001514:	80450000 	lb	a1,0(v0)
10001518:	00000000 	nop
1000151c:	14a0fffa 	bnez	a1,10001508 <prints+0x98>
10001520:	02002021 	move	a0,s0
10001524:	1a400008 	blez	s2,10001548 <prints+0xd8>
10001528:	02408821 	move	s1,s2
1000152c:	2631ffff 	addiu	s1,s1,-1
10001530:	02002021 	move	a0,s0
10001534:	0c000510 	jal	10001440 <printchar>
10001538:	02802821 	move	a1,s4
1000153c:	1620fffc 	bnez	s1,10001530 <prints+0xc0>
10001540:	2631ffff 	addiu	s1,s1,-1
10001544:	02729821 	addu	s3,s3,s2
10001548:	8fbf0024 	lw	ra,36(sp)
1000154c:	02601021 	move	v0,s3
10001550:	8fb40020 	lw	s4,32(sp)
10001554:	8fb3001c 	lw	s3,28(sp)
10001558:	8fb20018 	lw	s2,24(sp)
1000155c:	8fb10014 	lw	s1,20(sp)
10001560:	8fb00010 	lw	s0,16(sp)
10001564:	03e00008 	jr	ra
10001568:	27bd0028 	addiu	sp,sp,40
1000156c:	30e70001 	andi	a3,a3,0x1
10001570:	14e0ffdf 	bnez	a3,100014f0 <prints+0x80>
10001574:	24140020 	li	s4,32
10001578:	1a40ffdd 	blez	s2,100014f0 <prints+0x80>
1000157c:	02409821 	move	s3,s2
10001580:	2673ffff 	addiu	s3,s3,-1
10001584:	02002021 	move	a0,s0
10001588:	0c000510 	jal	10001440 <printchar>
1000158c:	02802821 	move	a1,s4
10001590:	1660fffc 	bnez	s3,10001584 <prints+0x114>
10001594:	2673ffff 	addiu	s3,s3,-1
10001598:	26730001 	addiu	s3,s3,1
1000159c:	02409821 	move	s3,s2
100015a0:	0800053d 	j	100014f4 <prints+0x84>
100015a4:	00009021 	move	s2,zero
100015a8:	08000536 	j	100014d8 <prints+0x68>
100015ac:	02429023 	subu	s2,s2,v0

100015b0 <printi>:
100015b0:	27bdffb8 	addiu	sp,sp,-72
100015b4:	afb40040 	sw	s4,64(sp)
100015b8:	afb20038 	sw	s2,56(sp)
100015bc:	afb10034 	sw	s1,52(sp)
100015c0:	afbf0044 	sw	ra,68(sp)
100015c4:	afb3003c 	sw	s3,60(sp)
100015c8:	afb00030 	sw	s0,48(sp)
100015cc:	00a01021 	move	v0,a1
100015d0:	8fb40058 	lw	s4,88(sp)
100015d4:	8fb2005c 	lw	s2,92(sp)
100015d8:	10a0003c 	beqz	a1,100016cc <printi+0x11c>
100015dc:	00808821 	move	s1,a0
100015e0:	14e0002f 	bnez	a3,100016a0 <printi+0xf0>
100015e4:	2403000a 	li	v1,10
100015e8:	00003821 	move	a3,zero
100015ec:	a3a0002d 	sb	zero,45(sp)
100015f0:	10400010 	beqz	v0,10001634 <printi+0x84>
100015f4:	27b3002d 	addiu	s3,sp,45
100015f8:	8fa50060 	lw	a1,96(sp)
100015fc:	00000000 	nop
10001600:	24a5ffc6 	addiu	a1,a1,-58
10001604:	0046001b 	divu	zero,v0,a2
10001608:	00001810 	mfhi	v1
1000160c:	2864000a 	slti	a0,v1,10
10001610:	00000000 	nop
10001614:	0046001b 	divu	zero,v0,a2
10001618:	00001012 	mflo	v0
1000161c:	14800002 	bnez	a0,10001628 <printi+0x78>
10001620:	2673ffff 	addiu	s3,s3,-1
10001624:	00651821 	addu	v1,v1,a1
10001628:	24630030 	addiu	v1,v1,48
1000162c:	1440fff5 	bnez	v0,10001604 <printi+0x54>
10001630:	a2630000 	sb	v1,0(s3)
10001634:	14e0000f 	bnez	a3,10001674 <printi+0xc4>
10001638:	00008021 	move	s0,zero
1000163c:	02202021 	move	a0,s1
10001640:	02602821 	move	a1,s3
10001644:	02803021 	move	a2,s4
10001648:	0c00051c 	jal	10001470 <prints>
1000164c:	02403821 	move	a3,s2
10001650:	8fbf0044 	lw	ra,68(sp)
10001654:	00501021 	addu	v0,v0,s0
10001658:	8fb40040 	lw	s4,64(sp)
1000165c:	8fb3003c 	lw	s3,60(sp)
10001660:	8fb20038 	lw	s2,56(sp)
10001664:	8fb10034 	lw	s1,52(sp)
10001668:	8fb00030 	lw	s0,48(sp)
1000166c:	03e00008 	jr	ra
10001670:	27bd0048 	addiu	sp,sp,72
10001674:	12800011 	beqz	s4,100016bc <printi+0x10c>
10001678:	2402002d 	li	v0,45
1000167c:	32420002 	andi	v0,s2,0x2
10001680:	1040000e 	beqz	v0,100016bc <printi+0x10c>
10001684:	2402002d 	li	v0,45
10001688:	02202021 	move	a0,s1
1000168c:	0c000510 	jal	10001440 <printchar>
10001690:	2405002d 	li	a1,45
10001694:	2694ffff 	addiu	s4,s4,-1
10001698:	0800058f 	j	1000163c <printi+0x8c>
1000169c:	24100001 	li	s0,1
100016a0:	14c3ffd2 	bne	a2,v1,100015ec <printi+0x3c>
100016a4:	00003821 	move	a3,zero
100016a8:	04a1ffd0 	bgez	a1,100015ec <printi+0x3c>
100016ac:	00000000 	nop
100016b0:	00051023 	negu	v0,a1
100016b4:	0800057b 	j	100015ec <printi+0x3c>
100016b8:	24070001 	li	a3,1
100016bc:	a262ffff 	sb	v0,-1(s3)
100016c0:	00008021 	move	s0,zero
100016c4:	0800058f 	j	1000163c <printi+0x8c>
100016c8:	2673ffff 	addiu	s3,s3,-1
100016cc:	27a50010 	addiu	a1,sp,16
100016d0:	02803021 	move	a2,s4
100016d4:	02403821 	move	a3,s2
100016d8:	24020030 	li	v0,48
100016dc:	a3a20010 	sb	v0,16(sp)
100016e0:	0c00051c 	jal	10001470 <prints>
100016e4:	a3a00011 	sb	zero,17(sp)
100016e8:	8fbf0044 	lw	ra,68(sp)
100016ec:	8fb40040 	lw	s4,64(sp)
100016f0:	8fb3003c 	lw	s3,60(sp)
100016f4:	8fb20038 	lw	s2,56(sp)
100016f8:	8fb10034 	lw	s1,52(sp)
100016fc:	8fb00030 	lw	s0,48(sp)
10001700:	03e00008 	jr	ra
10001704:	27bd0048 	addiu	sp,sp,72

10001708 <print>:
10001708:	27bdffb8 	addiu	sp,sp,-72
1000170c:	afb40038 	sw	s4,56(sp)
10001710:	afb20030 	sw	s2,48(sp)
10001714:	afbf0044 	sw	ra,68(sp)
10001718:	afb60040 	sw	s6,64(sp)
1000171c:	afb5003c 	sw	s5,60(sp)
10001720:	afb30034 	sw	s3,52(sp)
10001724:	afb1002c 	sw	s1,44(sp)
10001728:	afb00028 	sw	s0,40(sp)
1000172c:	80a30000 	lb	v1,0(a1)
10001730:	00a01021 	move	v0,a1
10001734:	0080a021 	move	s4,a0
10001738:	afa60050 	sw	a2,80(sp)
1000173c:	10600048 	beqz	v1,10001860 <print+0x158>
10001740:	00009021 	move	s2,zero
10001744:	24130025 	li	s3,37
10001748:	2415002d 	li	s5,45
1000174c:	24110030 	li	s1,48
10001750:	3c161000 	lui	s6,0x1000
10001754:	14730052 	bne	v1,s3,100018a0 <print+0x198>
10001758:	00408021 	move	s0,v0
1000175c:	80450001 	lb	a1,1(v0)
10001760:	00000000 	nop
10001764:	10a0003e 	beqz	a1,10001860 <print+0x158>
10001768:	00000000 	nop
1000176c:	10b3004d 	beq	a1,s3,100018a4 <print+0x19c>
10001770:	24500001 	addiu	s0,v0,1
10001774:	10b50054 	beq	a1,s5,100018c8 <print+0x1c0>
10001778:	00000000 	nop
1000177c:	00001821 	move	v1,zero
10001780:	14b10007 	bne	a1,s1,100017a0 <print+0x98>
10001784:	24a4ffd0 	addiu	a0,a1,-48
10001788:	26100001 	addiu	s0,s0,1
1000178c:	82050000 	lb	a1,0(s0)
10001790:	00000000 	nop
10001794:	10b1fffc 	beq	a1,s1,10001788 <print+0x80>
10001798:	34630002 	ori	v1,v1,0x2
1000179c:	24a4ffd0 	addiu	a0,a1,-48
100017a0:	308200ff 	andi	v0,a0,0xff
100017a4:	2c42000a 	sltiu	v0,v0,10
100017a8:	1040000d 	beqz	v0,100017e0 <print+0xd8>
100017ac:	00001021 	move	v0,zero
100017b0:	26100001 	addiu	s0,s0,1
100017b4:	00023040 	sll	a2,v0,0x1
100017b8:	82050000 	lb	a1,0(s0)
100017bc:	000210c0 	sll	v0,v0,0x3
100017c0:	00c21021 	addu	v0,a2,v0
100017c4:	00821021 	addu	v0,a0,v0
100017c8:	24a4ffd0 	addiu	a0,a1,-48
100017cc:	308600ff 	andi	a2,a0,0xff
100017d0:	2cc6000a 	sltiu	a2,a2,10
100017d4:	14c0fff7 	bnez	a2,100017b4 <print+0xac>
100017d8:	26100001 	addiu	s0,s0,1
100017dc:	2610ffff 	addiu	s0,s0,-1
100017e0:	24040073 	li	a0,115
100017e4:	10a4003c 	beq	a1,a0,100018d8 <print+0x1d0>
100017e8:	24040064 	li	a0,100
100017ec:	10a40046 	beq	a1,a0,10001908 <print+0x200>
100017f0:	02802021 	move	a0,s4
100017f4:	24040078 	li	a0,120
100017f8:	10a40051 	beq	a1,a0,10001940 <print+0x238>
100017fc:	02802021 	move	a0,s4
10001800:	24040058 	li	a0,88
10001804:	10a40055 	beq	a1,a0,1000195c <print+0x254>
10001808:	02802021 	move	a0,s4
1000180c:	24040075 	li	a0,117
10001810:	10a40060 	beq	a1,a0,10001994 <print+0x28c>
10001814:	02802021 	move	a0,s4
10001818:	24040063 	li	a0,99
1000181c:	14a40024 	bne	a1,a0,100018b0 <print+0x1a8>
10001820:	00603821 	move	a3,v1
10001824:	8fa90050 	lw	t1,80(sp)
10001828:	00000000 	nop
1000182c:	8d280000 	lw	t0,0(t1)
10001830:	02802021 	move	a0,s4
10001834:	25290004 	addiu	t1,t1,4
10001838:	27a50020 	addiu	a1,sp,32
1000183c:	00403021 	move	a2,v0
10001840:	afa90050 	sw	t1,80(sp)
10001844:	a3a80020 	sb	t0,32(sp)
10001848:	0c00051c 	jal	10001470 <prints>
1000184c:	a3a00021 	sb	zero,33(sp)
10001850:	82030001 	lb	v1,1(s0)
10001854:	02429021 	addu	s2,s2,v0
10001858:	1460ffbe 	bnez	v1,10001754 <print+0x4c>
1000185c:	26020001 	addiu	v0,s0,1
10001860:	12800004 	beqz	s4,10001874 <print+0x16c>
10001864:	00000000 	nop
10001868:	8e820000 	lw	v0,0(s4)
1000186c:	00000000 	nop
10001870:	a0400000 	sb	zero,0(v0)
10001874:	8fbf0044 	lw	ra,68(sp)
10001878:	02401021 	move	v0,s2
1000187c:	8fb60040 	lw	s6,64(sp)
10001880:	8fb5003c 	lw	s5,60(sp)
10001884:	8fb40038 	lw	s4,56(sp)
10001888:	8fb30034 	lw	s3,52(sp)
1000188c:	8fb20030 	lw	s2,48(sp)
10001890:	8fb1002c 	lw	s1,44(sp)
10001894:	8fb00028 	lw	s0,40(sp)
10001898:	03e00008 	jr	ra
1000189c:	27bd0048 	addiu	sp,sp,72
100018a0:	80450000 	lb	a1,0(v0)
100018a4:	0c000510 	jal	10001440 <printchar>
100018a8:	02802021 	move	a0,s4
100018ac:	26520001 	addiu	s2,s2,1
100018b0:	82030001 	lb	v1,1(s0)
100018b4:	00000000 	nop
100018b8:	1460ffa6 	bnez	v1,10001754 <print+0x4c>
100018bc:	26020001 	addiu	v0,s0,1
100018c0:	08000618 	j	10001860 <print+0x158>
100018c4:	00000000 	nop
100018c8:	24500002 	addiu	s0,v0,2
100018cc:	80450002 	lb	a1,2(v0)
100018d0:	080005e0 	j	10001780 <print+0x78>
100018d4:	24030001 	li	v1,1
100018d8:	8fa40050 	lw	a0,80(sp)
100018dc:	00000000 	nop
100018e0:	8c850000 	lw	a1,0(a0)
100018e4:	24840004 	addiu	a0,a0,4
100018e8:	10a00031 	beqz	a1,100019b0 <print+0x2a8>
100018ec:	afa40050 	sw	a0,80(sp)
100018f0:	02802021 	move	a0,s4
100018f4:	00403021 	move	a2,v0
100018f8:	0c00051c 	jal	10001470 <prints>
100018fc:	00603821 	move	a3,v1
10001900:	0800062c 	j	100018b0 <print+0x1a8>
10001904:	02429021 	addu	s2,s2,v0
10001908:	8fa80050 	lw	t0,80(sp)
1000190c:	00000000 	nop
10001910:	8d050000 	lw	a1,0(t0)
10001914:	2406000a 	li	a2,10
10001918:	25080004 	addiu	t0,t0,4
1000191c:	24070001 	li	a3,1
10001920:	afa20010 	sw	v0,16(sp)
10001924:	24020061 	li	v0,97
10001928:	afa80050 	sw	t0,80(sp)
1000192c:	afa30014 	sw	v1,20(sp)
10001930:	0c00056c 	jal	100015b0 <printi>
10001934:	afa20018 	sw	v0,24(sp)
10001938:	0800062c 	j	100018b0 <print+0x1a8>
1000193c:	02429021 	addu	s2,s2,v0
10001940:	8fa80050 	lw	t0,80(sp)
10001944:	00000000 	nop
10001948:	8d050000 	lw	a1,0(t0)
1000194c:	24060010 	li	a2,16
10001950:	25080004 	addiu	t0,t0,4
10001954:	08000648 	j	10001920 <print+0x218>
10001958:	00003821 	move	a3,zero
1000195c:	8fa80050 	lw	t0,80(sp)
10001960:	00000000 	nop
10001964:	8d050000 	lw	a1,0(t0)
10001968:	24060010 	li	a2,16
1000196c:	25080004 	addiu	t0,t0,4
10001970:	afa20010 	sw	v0,16(sp)
10001974:	00003821 	move	a3,zero
10001978:	24020041 	li	v0,65
1000197c:	afa80050 	sw	t0,80(sp)
10001980:	afa30014 	sw	v1,20(sp)
10001984:	0c00056c 	jal	100015b0 <printi>
10001988:	afa20018 	sw	v0,24(sp)
1000198c:	0800062c 	j	100018b0 <print+0x1a8>
10001990:	02429021 	addu	s2,s2,v0
10001994:	8fa80050 	lw	t0,80(sp)
10001998:	00000000 	nop
1000199c:	8d050000 	lw	a1,0(t0)
100019a0:	2406000a 	li	a2,10
100019a4:	25080004 	addiu	t0,t0,4
100019a8:	08000648 	j	10001920 <print+0x218>
100019ac:	00003821 	move	a3,zero
100019b0:	0800063c 	j	100018f0 <print+0x1e8>
100019b4:	26c53e88 	addiu	a1,s6,16008

100019b8 <strncpy>:
100019b8:	18c0000f 	blez	a2,100019f8 <strncpy+0x40>
100019bc:	00801021 	move	v0,a0
100019c0:	80a40000 	lb	a0,0(a1)
100019c4:	24430001 	addiu	v1,v0,1
100019c8:	10800018 	beqz	a0,10001a2c <strncpy+0x74>
100019cc:	a0440000 	sb	a0,0(v0)
100019d0:	0800067b 	j	100019ec <strncpy+0x34>
100019d4:	00002021 	move	a0,zero
100019d8:	80e70000 	lb	a3,0(a3)
100019dc:	00000000 	nop
100019e0:	a0670000 	sb	a3,0(v1)
100019e4:	10e00006 	beqz	a3,10001a00 <strncpy+0x48>
100019e8:	24630001 	addiu	v1,v1,1
100019ec:	24840001 	addiu	a0,a0,1
100019f0:	1486fff9 	bne	a0,a2,100019d8 <strncpy+0x20>
100019f4:	00a43821 	addu	a3,a1,a0
100019f8:	03e00008 	jr	ra
100019fc:	00000000 	nop
10001a00:	24840001 	addiu	a0,a0,1
10001a04:	0086282a 	slt	a1,a0,a2
10001a08:	10a0fffb 	beqz	a1,100019f8 <strncpy+0x40>
10001a0c:	00663021 	addu	a2,v1,a2
10001a10:	00c42023 	subu	a0,a2,a0
10001a14:	a0600000 	sb	zero,0(v1)
10001a18:	24630001 	addiu	v1,v1,1
10001a1c:	1464fffd 	bne	v1,a0,10001a14 <strncpy+0x5c>
10001a20:	00000000 	nop
10001a24:	03e00008 	jr	ra
10001a28:	00000000 	nop
10001a2c:	08000681 	j	10001a04 <strncpy+0x4c>
10001a30:	24040001 	li	a0,1

10001a34 <memcpy>:
10001a34:	10c00008 	beqz	a2,10001a58 <memcpy+0x24>
10001a38:	00801021 	move	v0,a0
10001a3c:	00801821 	move	v1,a0
10001a40:	80a40000 	lb	a0,0(a1)
10001a44:	24c6ffff 	addiu	a2,a2,-1
10001a48:	a0640000 	sb	a0,0(v1)
10001a4c:	24a50001 	addiu	a1,a1,1
10001a50:	14c0fffb 	bnez	a2,10001a40 <memcpy+0xc>
10001a54:	24630001 	addiu	v1,v1,1
10001a58:	03e00008 	jr	ra
10001a5c:	00000000 	nop

10001a60 <memset>:
10001a60:	10c00007 	beqz	a2,10001a80 <memset+0x20>
10001a64:	00801021 	move	v0,a0
10001a68:	30a500ff 	andi	a1,a1,0xff
10001a6c:	00801821 	move	v1,a0
10001a70:	24c6ffff 	addiu	a2,a2,-1
10001a74:	a0650000 	sb	a1,0(v1)
10001a78:	14c0fffd 	bnez	a2,10001a70 <memset+0x10>
10001a7c:	24630001 	addiu	v1,v1,1
10001a80:	03e00008 	jr	ra
10001a84:	00000000 	nop

10001a88 <random>:
10001a88:	3c031001 	lui	v1,0x1001
10001a8c:	8c626298 	lw	v0,25240(v1)
10001a90:	3c0441c6 	lui	a0,0x41c6
10001a94:	24844e6d 	addiu	a0,a0,20077
10001a98:	00440018 	mult	v0,a0
10001a9c:	00002012 	mflo	a0
10001aa0:	24843039 	addiu	a0,a0,12345
10001aa4:	00041402 	srl	v0,a0,0x10
10001aa8:	ac646298 	sw	a0,25240(v1)
10001aac:	03e00008 	jr	ra
10001ab0:	30427fff 	andi	v0,v0,0x7fff

10001ab4 <printf>:
10001ab4:	27bdffe0 	addiu	sp,sp,-32
10001ab8:	27a20024 	addiu	v0,sp,36
10001abc:	00801821 	move	v1,a0
10001ac0:	afa50024 	sw	a1,36(sp)
10001ac4:	afa60028 	sw	a2,40(sp)
10001ac8:	00002021 	move	a0,zero
10001acc:	00602821 	move	a1,v1
10001ad0:	00403021 	move	a2,v0
10001ad4:	afbf001c 	sw	ra,28(sp)
10001ad8:	afa7002c 	sw	a3,44(sp)
10001adc:	0c0005c2 	jal	10001708 <print>
10001ae0:	afa20010 	sw	v0,16(sp)
10001ae4:	8fbf001c 	lw	ra,28(sp)
10001ae8:	00000000 	nop
10001aec:	03e00008 	jr	ra
10001af0:	27bd0020 	addiu	sp,sp,32

10001af4 <malloc>:
10001af4:	080007e4 	j	10001f90 <hf_malloc>
10001af8:	00000000 	nop

10001afc <__udivmoddi4>:
10001afc:	27bdfff8 	addiu	sp,sp,-8
10001b00:	00c71025 	or	v0,a2,a3
10001b04:	afb10004 	sw	s1,4(sp)
10001b08:	afb00000 	sw	s0,0(sp)
10001b0c:	8fb80018 	lw	t8,24(sp)
10001b10:	10400035 	beqz	v0,10001be8 <__udivmoddi4+0xec>
10001b14:	24090001 	li	t1,1
10001b18:	04c0000e 	bltz	a2,10001b54 <__udivmoddi4+0x58>
10001b1c:	00004021 	move	t0,zero
10001b20:	00075fc2 	srl	t3,a3,0x1f
10001b24:	00063040 	sll	a2,a2,0x1
10001b28:	000957c2 	srl	t2,t1,0x1f
10001b2c:	00081840 	sll	v1,t0,0x1
10001b30:	00091040 	sll	v0,t1,0x1
10001b34:	01663025 	or	a2,t3,a2
10001b38:	01434025 	or	t0,t2,v1
10001b3c:	00073840 	sll	a3,a3,0x1
10001b40:	04c1fff7 	bgez	a2,10001b20 <__udivmoddi4+0x24>
10001b44:	00404821 	move	t1,v0
10001b48:	00481025 	or	v0,v0,t0
10001b4c:	1040002e 	beqz	v0,10001c08 <__udivmoddi4+0x10c>
10001b50:	00001821 	move	v1,zero
10001b54:	00001821 	move	v1,zero
10001b58:	00001021 	move	v0,zero
10001b5c:	0086782b 	sltu	t7,a0,a2
10001b60:	00087042 	srl	t6,t0,0x1
10001b64:	00086fc0 	sll	t5,t0,0x1f
10001b68:	00095042 	srl	t2,t1,0x1
10001b6c:	000667c0 	sll	t4,a2,0x1f
10001b70:	15e0000f 	bnez	t7,10001bb0 <__udivmoddi4+0xb4>
10001b74:	00075842 	srl	t3,a3,0x1
10001b78:	00a77823 	subu	t7,a1,a3
10001b7c:	00694821 	addu	t1,v1,t1
10001b80:	00484021 	addu	t0,v0,t0
10001b84:	0123882b 	sltu	s1,t1,v1
10001b88:	00afc82b 	sltu	t9,a1,t7
10001b8c:	00868023 	subu	s0,a0,a2
10001b90:	14c40003 	bne	a2,a0,10001ba0 <__udivmoddi4+0xa4>
10001b94:	00a7382b 	sltu	a3,a1,a3
10001b98:	14e00005 	bnez	a3,10001bb0 <__udivmoddi4+0xb4>
10001b9c:	00000000 	nop
10001ba0:	02281021 	addu	v0,s1,t0
10001ba4:	02192023 	subu	a0,s0,t9
10001ba8:	01e02821 	move	a1,t7
10001bac:	01201821 	move	v1,t1
10001bb0:	01aa4825 	or	t1,t5,t2
10001bb4:	01c95025 	or	t2,t6,t1
10001bb8:	01c04021 	move	t0,t6
10001bbc:	00063042 	srl	a2,a2,0x1
10001bc0:	1540ffe6 	bnez	t2,10001b5c <__udivmoddi4+0x60>
10001bc4:	018b3825 	or	a3,t4,t3
10001bc8:	13000003 	beqz	t8,10001bd8 <__udivmoddi4+0xdc>
10001bcc:	00000000 	nop
10001bd0:	af040000 	sw	a0,0(t8)
10001bd4:	af050004 	sw	a1,4(t8)
10001bd8:	8fb10004 	lw	s1,4(sp)
10001bdc:	8fb00000 	lw	s0,0(sp)
10001be0:	03e00008 	jr	ra
10001be4:	27bd0008 	addiu	sp,sp,8
10001be8:	24030001 	li	v1,1
10001bec:	0062001b 	divu	zero,v1,v0
10001bf0:	8fb10004 	lw	s1,4(sp)
10001bf4:	00001021 	move	v0,zero
10001bf8:	8fb00000 	lw	s0,0(sp)
10001bfc:	00001812 	mflo	v1
10001c00:	03e00008 	jr	ra
10001c04:	27bd0008 	addiu	sp,sp,8
10001c08:	080006f2 	j	10001bc8 <__udivmoddi4+0xcc>
10001c0c:	00001021 	move	v0,zero

10001c10 <__udivdi3>:
10001c10:	27bdffe0 	addiu	sp,sp,-32
10001c14:	afbf001c 	sw	ra,28(sp)
10001c18:	0c0006bf 	jal	10001afc <__udivmoddi4>
10001c1c:	afa00010 	sw	zero,16(sp)
10001c20:	8fbf001c 	lw	ra,28(sp)
10001c24:	00000000 	nop
10001c28:	03e00008 	jr	ra
10001c2c:	27bd0020 	addiu	sp,sp,32

10001c30 <idletask>:
10001c30:	27bdffe8 	addiu	sp,sp,-24
10001c34:	afbf0014 	sw	ra,20(sp)
10001c38:	0c0003da 	jal	10000f68 <_cpu_idle>
10001c3c:	00000000 	nop
10001c40:	0c0003da 	jal	10000f68 <_cpu_idle>
10001c44:	00000000 	nop
10001c48:	0800070e 	j	10001c38 <idletask+0x8>
10001c4c:	00000000 	nop

10001c50 <main>:
10001c50:	27bdffd0 	addiu	sp,sp,-48
10001c54:	afbf002c 	sw	ra,44(sp)
10001c58:	afb40028 	sw	s4,40(sp)
10001c5c:	afb30024 	sw	s3,36(sp)
10001c60:	afb20020 	sw	s2,32(sp)
10001c64:	afb1001c 	sw	s1,28(sp)
10001c68:	0c000378 	jal	10000de0 <_hardware_init>
10001c6c:	afb00018 	sw	s0,24(sp)
10001c70:	0c000c2c 	jal	100030b0 <hf_schedlock>
10001c74:	24040001 	li	a0,1
10001c78:	0c00007b 	jal	100001ec <_interrupt_set>
10001c7c:	00002021 	move	a0,zero
10001c80:	3c041000 	lui	a0,0x1000
10001c84:	0c00048a 	jal	10001228 <kprintf>
10001c88:	24843ed8 	addiu	a0,a0,16088
10001c8c:	3c021001 	lui	v0,0x1001
10001c90:	3c03baad 	lui	v1,0xbaad
10001c94:	8c44629c 	lw	a0,25244(v0)
10001c98:	3463d00d 	ori	v1,v1,0xd00d
10001c9c:	1083000c 	beq	a0,v1,10001cd0 <main+0x80>
10001ca0:	3c041000 	lui	a0,0x1000
10001ca4:	0c000bc9 	jal	10002f24 <panic>
10001ca8:	24040001 	li	a0,1
10001cac:	8fbf002c 	lw	ra,44(sp)
10001cb0:	00001021 	move	v0,zero
10001cb4:	8fb40028 	lw	s4,40(sp)
10001cb8:	8fb30024 	lw	s3,36(sp)
10001cbc:	8fb20020 	lw	s2,32(sp)
10001cc0:	8fb1001c 	lw	s1,28(sp)
10001cc4:	8fb00018 	lw	s0,24(sp)
10001cc8:	03e00008 	jr	ra
10001ccc:	27bd0030 	addiu	sp,sp,48
10001cd0:	24843eec 	addiu	a0,a0,16108
10001cd4:	0c00048a 	jal	10001228 <kprintf>
10001cd8:	ac40629c 	sw	zero,25244(v0)
10001cdc:	3c061000 	lui	a2,0x1000
10001ce0:	3c071000 	lui	a3,0x1000
10001ce4:	3c051000 	lui	a1,0x1000
10001ce8:	3c041000 	lui	a0,0x1000
10001cec:	24c63f4c 	addiu	a2,a2,16204
10001cf0:	24e73f58 	addiu	a3,a3,16216
10001cf4:	24a53f44 	addiu	a1,a1,16196
10001cf8:	0c00048a 	jal	10001228 <kprintf>
10001cfc:	24843f2c 	addiu	a0,a0,16172
10001d00:	3c041000 	lui	a0,0x1000
10001d04:	0c00048a 	jal	10001228 <kprintf>
10001d08:	24843f64 	addiu	a0,a0,16228
10001d0c:	3c041000 	lui	a0,0x1000
10001d10:	0c00048a 	jal	10001228 <kprintf>
10001d14:	24843f9c 	addiu	a0,a0,16284
10001d18:	3c041000 	lui	a0,0x1000
10001d1c:	3c051000 	lui	a1,0x1000
10001d20:	24843fdc 	addiu	a0,a0,16348
10001d24:	0c00048a 	jal	10001228 <kprintf>
10001d28:	24a53ff0 	addiu	a1,a1,16368
10001d2c:	3c041000 	lui	a0,0x1000
10001d30:	24843ffc 	addiu	a0,a0,16380
10001d34:	0c00048a 	jal	10001228 <kprintf>
10001d38:	240561a8 	li	a1,25000
10001d3c:	3c041000 	lui	a0,0x1000
10001d40:	24844014 	addiu	a0,a0,16404
10001d44:	0c00048a 	jal	10001228 <kprintf>
10001d48:	240528f0 	li	a1,10480
10001d4c:	3c041000 	lui	a0,0x1000
10001d50:	3c050007 	lui	a1,0x7
10001d54:	2484402c 	addiu	a0,a0,16428
10001d58:	0c00048a 	jal	10001228 <kprintf>
10001d5c:	34a5a120 	ori	a1,a1,0xa120
10001d60:	3c041000 	lui	a0,0x1000
10001d64:	24844048 	addiu	a0,a0,16456
10001d68:	2405001e 	li	a1,30
10001d6c:	0c00048a 	jal	10001228 <kprintf>
10001d70:	3c141001 	lui	s4,0x1001
10001d74:	0c000386 	jal	10000e18 <_vm_init>
10001d78:	00008021 	move	s0,zero
10001d7c:	26946354 	addiu	s4,s4,25428
10001d80:	3c111009 	lui	s1,0x1009
10001d84:	2413ffff 	li	s3,-1
10001d88:	2412001e 	li	s2,30
10001d8c:	00101880 	sll	v1,s0,0x2
10001d90:	00101140 	sll	v0,s0,0x5
10001d94:	00621021 	addu	v0,v1,v0
10001d98:	00501021 	addu	v0,v0,s0
10001d9c:	00021080 	sll	v0,v0,0x2
10001da0:	02821021 	addu	v0,s4,v0
10001da4:	24440002 	addiu	a0,v0,2
10001da8:	00002821 	move	a1,zero
10001dac:	24060014 	li	a2,20
10001db0:	a4530000 	sh	s3,0(v0)
10001db4:	0c000698 	jal	10001a60 <memset>
10001db8:	ae221690 	sw	v0,5776(s1)
10001dbc:	8e221690 	lw	v0,5776(s1)
10001dc0:	26100001 	addiu	s0,s0,1
10001dc4:	a0400016 	sb	zero,22(v0)
10001dc8:	ac400018 	sw	zero,24(v0)
10001dcc:	ac40001c 	sw	zero,28(v0)
10001dd0:	ac400020 	sw	zero,32(v0)
10001dd4:	ac400024 	sw	zero,36(v0)
10001dd8:	a4400028 	sh	zero,40(v0)
10001ddc:	a440002a 	sh	zero,42(v0)
10001de0:	a440002c 	sh	zero,44(v0)
10001de4:	a440002e 	sh	zero,46(v0)
10001de8:	a4400030 	sh	zero,48(v0)
10001dec:	ac400084 	sw	zero,132(v0)
10001df0:	ac400088 	sw	zero,136(v0)
10001df4:	ac40008c 	sw	zero,140(v0)
10001df8:	1612ffe4 	bne	s0,s2,10001d8c <main+0x13c>
10001dfc:	ac400090 	sw	zero,144(v0)
10001e00:	3c031009 	lui	v1,0x1009
10001e04:	3c051009 	lui	a1,0x1009
10001e08:	246215cc 	addiu	v0,v1,5580
10001e0c:	a4a01698 	sh	zero,5784(a1)
10001e10:	3c051009 	lui	a1,0x1009
10001e14:	a4a0168c 	sh	zero,5772(a1)
10001e18:	2404001e 	li	a0,30
10001e1c:	3c051009 	lui	a1,0x1009
10001e20:	ac400004 	sw	zero,4(v0)
10001e24:	ac400008 	sw	zero,8(v0)
10001e28:	ac6015cc 	sw	zero,5580(v1)
10001e2c:	0c000c30 	jal	100030c0 <hf_queue_create>
10001e30:	a4a016a8 	sh	zero,5800(a1)
10001e34:	3c031009 	lui	v1,0x1009
10001e38:	10400032 	beqz	v0,10001f04 <main+0x2b4>
10001e3c:	ac6216a0 	sw	v0,5792(v1)
10001e40:	0c000c30 	jal	100030c0 <hf_queue_create>
10001e44:	2404001e 	li	a0,30
10001e48:	3c031009 	lui	v1,0x1009
10001e4c:	10400035 	beqz	v0,10001f24 <main+0x2d4>
10001e50:	ac6216ac 	sw	v0,5804(v1)
10001e54:	0c000c30 	jal	100030c0 <hf_queue_create>
10001e58:	2404001e 	li	a0,30
10001e5c:	3c031009 	lui	v1,0x1009
10001e60:	1040002c 	beqz	v0,10001f14 <main+0x2c4>
10001e64:	ac6216a4 	sw	v0,5796(v1)
10001e68:	0c000392 	jal	10000e48 <_sched_init>
10001e6c:	00000000 	nop
10001e70:	0c000395 	jal	10000e54 <_irq_init>
10001e74:	00000000 	nop
10001e78:	0c000398 	jal	10000e60 <_timer_init>
10001e7c:	00000000 	nop
10001e80:	0c000405 	jal	10001014 <_timer_reset>
10001e84:	00000000 	nop
10001e88:	3c021000 	lui	v0,0x1000
10001e8c:	24424504 	addiu	v0,v0,17668
10001e90:	3c041000 	lui	a0,0x1000
10001e94:	00003021 	move	a2,zero
10001e98:	00003821 	move	a3,zero
10001e9c:	24841c30 	addiu	a0,a0,7216
10001ea0:	00002821 	move	a1,zero
10001ea4:	afa20010 	sw	v0,16(sp)
10001ea8:	24020400 	li	v0,1024
10001eac:	0c000e4b 	jal	1000392c <hf_spawn>
10001eb0:	afa20014 	sw	v0,20(sp)
10001eb4:	0c0003ad 	jal	10000eb4 <_device_init>
10001eb8:	00000000 	nop
10001ebc:	0c0003b5 	jal	10000ed4 <_task_init>
10001ec0:	00000000 	nop
10001ec4:	0c000307 	jal	10000c1c <app_main>
10001ec8:	00000000 	nop
10001ecc:	3c021009 	lui	v0,0x1009
10001ed0:	8c45169c 	lw	a1,5788(v0)
10001ed4:	3c041000 	lui	a0,0x1000
10001ed8:	0c00048a 	jal	10001228 <kprintf>
10001edc:	2484405c 	addiu	a0,a0,16476
10001ee0:	3c041000 	lui	a0,0x1000
10001ee4:	0c00048a 	jal	10001228 <kprintf>
10001ee8:	2484407c 	addiu	a0,a0,16508
10001eec:	0c00007b 	jal	100001ec <_interrupt_set>
10001ef0:	24040001 	li	a0,1
10001ef4:	0c000c2c 	jal	100030b0 <hf_schedlock>
10001ef8:	00002021 	move	a0,zero
10001efc:	080007bf 	j	10001efc <main+0x2ac>
10001f00:	00000000 	nop
10001f04:	0c000bc9 	jal	10002f24 <panic>
10001f08:	24040004 	li	a0,4
10001f0c:	08000790 	j	10001e40 <main+0x1f0>
10001f10:	00000000 	nop
10001f14:	0c000bc9 	jal	10002f24 <panic>
10001f18:	24040004 	li	a0,4
10001f1c:	0800079a 	j	10001e68 <main+0x218>
10001f20:	00000000 	nop
10001f24:	0c000bc9 	jal	10002f24 <panic>
10001f28:	24040004 	li	a0,4
10001f2c:	08000795 	j	10001e54 <main+0x204>
10001f30:	00000000 	nop

10001f34 <hf_free>:
10001f34:	27bdffe0 	addiu	sp,sp,-32
10001f38:	afb00014 	sw	s0,20(sp)
10001f3c:	3c101001 	lui	s0,0x1001
10001f40:	afb10018 	sw	s1,24(sp)
10001f44:	00808821 	move	s1,a0
10001f48:	afbf001c 	sw	ra,28(sp)
10001f4c:	0c000854 	jal	10002150 <hf_mtxlock>
10001f50:	26046350 	addiu	a0,s0,25424
10001f54:	3c021009 	lui	v0,0x1009
10001f58:	8e25fffc 	lw	a1,-4(s1)
10001f5c:	8c43169c 	lw	v1,5788(v0)
10001f60:	2404fffe 	li	a0,-2
10001f64:	00a42024 	and	a0,a1,a0
10001f68:	24630008 	addiu	v1,v1,8
10001f6c:	ae24fffc 	sw	a0,-4(s1)
10001f70:	00641821 	addu	v1,v1,a0
10001f74:	8fbf001c 	lw	ra,28(sp)
10001f78:	26046350 	addiu	a0,s0,25424
10001f7c:	8fb10018 	lw	s1,24(sp)
10001f80:	8fb00014 	lw	s0,20(sp)
10001f84:	27bd0020 	addiu	sp,sp,32
10001f88:	0800086d 	j	100021b4 <hf_mtxunlock>
10001f8c:	ac43169c 	sw	v1,5788(v0)

10001f90 <hf_malloc>:
10001f90:	27bdffe0 	addiu	sp,sp,-32
10001f94:	afb20018 	sw	s2,24(sp)
10001f98:	3c121001 	lui	s2,0x1001
10001f9c:	afb00010 	sw	s0,16(sp)
10001fa0:	2402fffc 	li	v0,-4
10001fa4:	24900003 	addiu	s0,a0,3
10001fa8:	26446350 	addiu	a0,s2,25424
10001fac:	02028024 	and	s0,s0,v0
10001fb0:	afbf001c 	sw	ra,28(sp)
10001fb4:	0c000854 	jal	10002150 <hf_mtxlock>
10001fb8:	afb10014 	sw	s1,20(sp)
10001fbc:	3c051001 	lui	a1,0x1001
10001fc0:	8ca374ac 	lw	v1,29868(a1)
10001fc4:	26080008 	addiu	t0,s0,8
10001fc8:	1060004a 	beqz	v1,100020f4 <hf_malloc+0x164>
10001fcc:	24a574ac 	addiu	a1,a1,29868
10001fd0:	00a02021 	move	a0,a1
10001fd4:	8c820004 	lw	v0,4(a0)
10001fd8:	00000000 	nop
10001fdc:	30420001 	andi	v0,v0,0x1
10001fe0:	14400005 	bnez	v0,10001ff8 <hf_malloc+0x68>
10001fe4:	2409fff8 	li	t1,-8
10001fe8:	08000803 	j	1000200c <hf_malloc+0x7c>
10001fec:	00801821 	move	v1,a0
10001ff0:	8c630000 	lw	v1,0(v1)
10001ff4:	00000000 	nop
10001ff8:	8c620004 	lw	v0,4(v1)
10001ffc:	00000000 	nop
10002000:	30420001 	andi	v0,v0,0x1
10002004:	1440fffa 	bnez	v0,10001ff0 <hf_malloc+0x60>
10002008:	00602821 	move	a1,v1
1000200c:	1440000a 	bnez	v0,10002038 <hf_malloc+0xa8>
10002010:	00000000 	nop
10002014:	8c640000 	lw	a0,0(v1)
10002018:	00000000 	nop
1000201c:	10800006 	beqz	a0,10002038 <hf_malloc+0xa8>
10002020:	00000000 	nop
10002024:	8c820004 	lw	v0,4(a0)
10002028:	00000000 	nop
1000202c:	30420001 	andi	v0,v0,0x1
10002030:	1040fff8 	beqz	v0,10002014 <hf_malloc+0x84>
10002034:	00801821 	move	v1,a0
10002038:	aca30000 	sw	v1,0(a1)
1000203c:	01252023 	subu	a0,t1,a1
10002040:	8c620000 	lw	v0,0(v1)
10002044:	00642021 	addu	a0,v1,a0
10002048:	00a03821 	move	a3,a1
1000204c:	1040000d 	beqz	v0,10002084 <hf_malloc+0xf4>
10002050:	aca40004 	sw	a0,4(a1)
10002054:	0088302b 	sltu	a2,a0,t0
10002058:	10c0000d 	beqz	a2,10002090 <hf_malloc+0x100>
1000205c:	00e08821 	move	s1,a3
10002060:	00602021 	move	a0,v1
10002064:	00401821 	move	v1,v0
10002068:	8c820004 	lw	v0,4(a0)
1000206c:	00000000 	nop
10002070:	30420001 	andi	v0,v0,0x1
10002074:	1440ffe0 	bnez	v0,10001ff8 <hf_malloc+0x68>
10002078:	00000000 	nop
1000207c:	08000803 	j	1000200c <hf_malloc+0x7c>
10002080:	00801821 	move	v1,a0
10002084:	0088102b 	sltu	v0,a0,t0
10002088:	1440001e 	bnez	v0,10002104 <hf_malloc+0x174>
1000208c:	00e08821 	move	s1,a3
10002090:	3c021009 	lui	v0,0x1009
10002094:	8c45169c 	lw	a1,5788(v0)
10002098:	2409fffe 	li	t1,-2
1000209c:	2406fff8 	li	a2,-8
100020a0:	00d03023 	subu	a2,a2,s0
100020a4:	00892024 	and	a0,a0,t1
100020a8:	00e83821 	addu	a3,a3,t0
100020ac:	00c42021 	addu	a0,a2,a0
100020b0:	24a5fff8 	addiu	a1,a1,-8
100020b4:	36060001 	ori	a2,s0,0x1
100020b8:	ae270000 	sw	a3,0(s1)
100020bc:	ae260004 	sw	a2,4(s1)
100020c0:	ace30000 	sw	v1,0(a3)
100020c4:	00b08023 	subu	s0,a1,s0
100020c8:	ace40004 	sw	a0,4(a3)
100020cc:	26446350 	addiu	a0,s2,25424
100020d0:	0c00086d 	jal	100021b4 <hf_mtxunlock>
100020d4:	ac50169c 	sw	s0,5788(v0)
100020d8:	26220008 	addiu	v0,s1,8
100020dc:	8fbf001c 	lw	ra,28(sp)
100020e0:	8fb20018 	lw	s2,24(sp)
100020e4:	8fb10014 	lw	s1,20(sp)
100020e8:	8fb00010 	lw	s0,16(sp)
100020ec:	03e00008 	jr	ra
100020f0:	27bd0020 	addiu	sp,sp,32
100020f4:	00a03821 	move	a3,a1
100020f8:	8ca40004 	lw	a0,4(a1)
100020fc:	08000824 	j	10002090 <hf_malloc+0x100>
10002100:	00a08821 	move	s1,a1
10002104:	0c00086d 	jal	100021b4 <hf_mtxunlock>
10002108:	26446350 	addiu	a0,s2,25424
1000210c:	08000837 	j	100020dc <hf_malloc+0x14c>
10002110:	00001021 	move	v0,zero

10002114 <heapinit>:
10002114:	2402fffc 	li	v0,-4
10002118:	24a50003 	addiu	a1,a1,3
1000211c:	00a22824 	and	a1,a1,v0
10002120:	24a5fff0 	addiu	a1,a1,-16
10002124:	ac80fffc 	sw	zero,-4(a0)
10002128:	ac850004 	sw	a1,4(a0)
1000212c:	ac800000 	sw	zero,0(a0)
10002130:	3c041001 	lui	a0,0x1001
10002134:	3c021009 	lui	v0,0x1009
10002138:	24846350 	addiu	a0,a0,25424
1000213c:	08000851 	j	10002144 <hf_mtxinit>
10002140:	ac45169c 	sw	a1,5788(v0)

10002144 <hf_mtxinit>:
10002144:	ac800000 	sw	zero,0(a0)
10002148:	03e00008 	jr	ra
1000214c:	00000000 	nop

10002150 <hf_mtxlock>:
10002150:	27bdffd8 	addiu	sp,sp,-40
10002154:	afb10020 	sw	s1,32(sp)
10002158:	afb0001c 	sw	s0,28(sp)
1000215c:	afbf0024 	sw	ra,36(sp)
10002160:	00808821 	move	s1,a0
10002164:	24100001 	li	s0,1
10002168:	0c00007b 	jal	100001ec <_interrupt_set>
1000216c:	00002021 	move	a0,zero
10002170:	afa20014 	sw	v0,20(sp)
10002174:	8e220000 	lw	v0,0(s1)
10002178:	00000000 	nop
1000217c:	afa20010 	sw	v0,16(sp)
10002180:	ae300000 	sw	s0,0(s1)
10002184:	8fa40014 	lw	a0,20(sp)
10002188:	0c00007b 	jal	100001ec <_interrupt_set>
1000218c:	00000000 	nop
10002190:	8fa20010 	lw	v0,16(sp)
10002194:	00000000 	nop
10002198:	1050fff3 	beq	v0,s0,10002168 <hf_mtxlock+0x18>
1000219c:	00000000 	nop
100021a0:	8fbf0024 	lw	ra,36(sp)
100021a4:	8fb10020 	lw	s1,32(sp)
100021a8:	8fb0001c 	lw	s0,28(sp)
100021ac:	03e00008 	jr	ra
100021b0:	27bd0028 	addiu	sp,sp,40

100021b4 <hf_mtxunlock>:
100021b4:	ac800000 	sw	zero,0(a0)
100021b8:	03e00008 	jr	ra
100021bc:	00000000 	nop

100021c0 <_ni_status>:
100021c0:	3c022000 	lui	v0,0x2000
100021c4:	8c420090 	lw	v0,144(v0)
100021c8:	03e00008 	jr	ra
100021cc:	3042ffff 	andi	v0,v0,0xffff

100021d0 <_ni_read>:
100021d0:	3c022000 	lui	v0,0x2000
100021d4:	8c420070 	lw	v0,112(v0)
100021d8:	03e00008 	jr	ra
100021dc:	3042ffff 	andi	v0,v0,0xffff

100021e0 <_ni_write>:
100021e0:	3084ffff 	andi	a0,a0,0xffff
100021e4:	3c022000 	lui	v0,0x2000
100021e8:	ac440080 	sw	a0,128(v0)
100021ec:	03e00008 	jr	ra
100021f0:	00000000 	nop

100021f4 <ni_isr>:
100021f4:	27bdffc0 	addiu	sp,sp,-64
100021f8:	00002021 	move	a0,zero
100021fc:	afbf003c 	sw	ra,60(sp)
10002200:	afb5002c 	sw	s5,44(sp)
10002204:	afbe0038 	sw	s8,56(sp)
10002208:	afb70034 	sw	s7,52(sp)
1000220c:	afb60030 	sw	s6,48(sp)
10002210:	afb40028 	sw	s4,40(sp)
10002214:	afb30024 	sw	s3,36(sp)
10002218:	afb20020 	sw	s2,32(sp)
1000221c:	afb1001c 	sw	s1,28(sp)
10002220:	0c00007b 	jal	100001ec <_interrupt_set>
10002224:	afb00018 	sw	s0,24(sp)
10002228:	0c000874 	jal	100021d0 <_ni_read>
1000222c:	00000000 	nop
10002230:	0c000874 	jal	100021d0 <_ni_read>
10002234:	00000000 	nop
10002238:	0c000874 	jal	100021d0 <_ni_read>
1000223c:	0040a821 	move	s5,v0
10002240:	2403003e 	li	v1,62
10002244:	1043000d 	beq	v0,v1,1000227c <ni_isr+0x88>
10002248:	00000000 	nop
1000224c:	8fbf003c 	lw	ra,60(sp)
10002250:	8fbe0038 	lw	s8,56(sp)
10002254:	8fb70034 	lw	s7,52(sp)
10002258:	8fb60030 	lw	s6,48(sp)
1000225c:	8fb5002c 	lw	s5,44(sp)
10002260:	8fb40028 	lw	s4,40(sp)
10002264:	8fb30024 	lw	s3,36(sp)
10002268:	8fb20020 	lw	s2,32(sp)
1000226c:	8fb1001c 	lw	s1,28(sp)
10002270:	8fb00018 	lw	s0,24(sp)
10002274:	03e00008 	jr	ra
10002278:	27bd0040 	addiu	sp,sp,64
1000227c:	0c000874 	jal	100021d0 <_ni_read>
10002280:	00000000 	nop
10002284:	0c000874 	jal	100021d0 <_ni_read>
10002288:	00409821 	move	s3,v0
1000228c:	0c000874 	jal	100021d0 <_ni_read>
10002290:	00408021 	move	s0,v0
10002294:	0c000874 	jal	100021d0 <_ni_read>
10002298:	00409021 	move	s2,v0
1000229c:	0c000874 	jal	100021d0 <_ni_read>
100022a0:	0040f021 	move	s8,v0
100022a4:	0c000874 	jal	100021d0 <_ni_read>
100022a8:	0040b821 	move	s7,v0
100022ac:	0040b021 	move	s6,v0
100022b0:	3c021009 	lui	v0,0x1009
100022b4:	244215d8 	addiu	v0,v0,5592
100022b8:	00001821 	move	v1,zero
100022bc:	080008b4 	j	100022d0 <ni_isr+0xdc>
100022c0:	2405001e 	li	a1,30
100022c4:	24630001 	addiu	v1,v1,1
100022c8:	10650046 	beq	v1,a1,100023e4 <ni_isr+0x1f0>
100022cc:	3c041000 	lui	a0,0x1000
100022d0:	94440000 	lhu	a0,0(v0)
100022d4:	00000000 	nop
100022d8:	1492fffa 	bne	a0,s2,100022c4 <ni_isr+0xd0>
100022dc:	24420002 	addiu	v0,v0,2
100022e0:	10600040 	beqz	v1,100023e4 <ni_isr+0x1f0>
100022e4:	3c041000 	lui	a0,0x1000
100022e8:	00031080 	sll	v0,v1,0x2
100022ec:	afa20010 	sw	v0,16(sp)
100022f0:	8fa40010 	lw	a0,16(sp)
100022f4:	00031140 	sll	v0,v1,0x5
100022f8:	00821021 	addu	v0,a0,v0
100022fc:	00431821 	addu	v1,v0,v1
10002300:	3c021001 	lui	v0,0x1001
10002304:	00031880 	sll	v1,v1,0x2
10002308:	24426354 	addiu	v0,v0,25428
1000230c:	00431021 	addu	v0,v0,v1
10002310:	8c420084 	lw	v0,132(v0)
10002314:	00000000 	nop
10002318:	10400031 	beqz	v0,100023e0 <ni_isr+0x1ec>
1000231c:	3c141009 	lui	s4,0x1009
10002320:	8e8416b0 	lw	a0,5808(s4)
10002324:	0c000c67 	jal	1000319c <hf_queue_remhead>
10002328:	00000000 	nop
1000232c:	10400039 	beqz	v0,10002414 <ni_isr+0x220>
10002330:	00408821 	move	s1,v0
10002334:	a4550000 	sh	s5,0(v0)
10002338:	2402003e 	li	v0,62
1000233c:	a6330004 	sh	s3,4(s1)
10002340:	a6300006 	sh	s0,6(s1)
10002344:	a6220002 	sh	v0,2(s1)
10002348:	a6320008 	sh	s2,8(s1)
1000234c:	a63e000a 	sh	s8,10(s1)
10002350:	a637000c 	sh	s7,12(s1)
10002354:	a636000e 	sh	s6,14(s1)
10002358:	00008021 	move	s0,zero
1000235c:	24130070 	li	s3,112
10002360:	0c000874 	jal	100021d0 <_ni_read>
10002364:	00000000 	nop
10002368:	02301821 	addu	v1,s1,s0
1000236c:	26100002 	addiu	s0,s0,2
10002370:	1613fffb 	bne	s0,s3,10002360 <ni_isr+0x16c>
10002374:	a4620010 	sh	v0,16(v1)
10002378:	3c021009 	lui	v0,0x1009
1000237c:	8fa30010 	lw	v1,16(sp)
10002380:	24421614 	addiu	v0,v0,5652
10002384:	00431021 	addu	v0,v0,v1
10002388:	8c440000 	lw	a0,0(v0)
1000238c:	0c000c4f 	jal	1000313c <hf_queue_addtail>
10002390:	02202821 	move	a1,s1
10002394:	1040ffad 	beqz	v0,1000224c <ni_isr+0x58>
10002398:	3c041000 	lui	a0,0x1000
1000239c:	02402821 	move	a1,s2
100023a0:	0c00048a 	jal	10001228 <kprintf>
100023a4:	2484409c 	addiu	a0,a0,16540
100023a8:	8e8416b0 	lw	a0,5808(s4)
100023ac:	02202821 	move	a1,s1
100023b0:	8fbf003c 	lw	ra,60(sp)
100023b4:	8fbe0038 	lw	s8,56(sp)
100023b8:	8fb70034 	lw	s7,52(sp)
100023bc:	8fb60030 	lw	s6,48(sp)
100023c0:	8fb5002c 	lw	s5,44(sp)
100023c4:	8fb40028 	lw	s4,40(sp)
100023c8:	8fb30024 	lw	s3,36(sp)
100023cc:	8fb20020 	lw	s2,32(sp)
100023d0:	8fb1001c 	lw	s1,28(sp)
100023d4:	8fb00018 	lw	s0,24(sp)
100023d8:	08000c4f 	j	1000313c <hf_queue_addtail>
100023dc:	27bd0040 	addiu	sp,sp,64
100023e0:	3c041000 	lui	a0,0x1000
100023e4:	02003821 	move	a3,s0
100023e8:	24844104 	addiu	a0,a0,16644
100023ec:	02402821 	move	a1,s2
100023f0:	0c00048a 	jal	10001228 <kprintf>
100023f4:	02603021 	move	a2,s3
100023f8:	24100038 	li	s0,56
100023fc:	0c000874 	jal	100021d0 <_ni_read>
10002400:	2610ffff 	addiu	s0,s0,-1
10002404:	1600fffd 	bnez	s0,100023fc <ni_isr+0x208>
10002408:	00000000 	nop
1000240c:	08000893 	j	1000224c <ni_isr+0x58>
10002410:	00000000 	nop
10002414:	3c041000 	lui	a0,0x1000
10002418:	0c00048a 	jal	10001228 <kprintf>
1000241c:	248440d8 	addiu	a0,a0,16600
10002420:	24100038 	li	s0,56
10002424:	0c000874 	jal	100021d0 <_ni_read>
10002428:	2610ffff 	addiu	s0,s0,-1
1000242c:	1600fffd 	bnez	s0,10002424 <ni_isr+0x230>
10002430:	00000000 	nop
10002434:	08000893 	j	1000224c <ni_isr+0x58>
10002438:	00000000 	nop

1000243c <ni_init>:
1000243c:	3c041000 	lui	a0,0x1000
10002440:	27bdffd8 	addiu	sp,sp,-40
10002444:	24844150 	addiu	a0,a0,16720
10002448:	24050006 	li	a1,6
1000244c:	afbf0024 	sw	ra,36(sp)
10002450:	afb10020 	sw	s1,32(sp)
10002454:	0c00048a 	jal	10001228 <kprintf>
10002458:	afb0001c 	sw	s0,28(sp)
1000245c:	3c041000 	lui	a0,0x1000
10002460:	2484416c 	addiu	a0,a0,16748
10002464:	0c00048a 	jal	10001228 <kprintf>
10002468:	24050080 	li	a1,128
1000246c:	0c000c30 	jal	100030c0 <hf_queue_create>
10002470:	24040080 	li	a0,128
10002474:	3c111009 	lui	s1,0x1009
10002478:	1040002d 	beqz	v0,10002530 <ni_init+0xf4>
1000247c:	ae2216b0 	sw	v0,5808(s1)
10002480:	3c021009 	lui	v0,0x1009
10002484:	244215d8 	addiu	v0,v0,5592
10002488:	2443003c 	addiu	v1,v0,60
1000248c:	a4400000 	sh	zero,0(v0)
10002490:	24420002 	addiu	v0,v0,2
10002494:	1443fffd 	bne	v0,v1,1000248c <ni_init+0x50>
10002498:	00000000 	nop
1000249c:	0800092e 	j	100024b8 <ni_init+0x7c>
100024a0:	24100080 	li	s0,128
100024a4:	8e2416b0 	lw	a0,5808(s1)
100024a8:	0c000c4f 	jal	1000313c <hf_queue_addtail>
100024ac:	00402821 	move	a1,v0
100024b0:	1200000e 	beqz	s0,100024ec <ni_init+0xb0>
100024b4:	00000000 	nop
100024b8:	0c0007e4 	jal	10001f90 <hf_malloc>
100024bc:	24040080 	li	a0,128
100024c0:	1440fff8 	bnez	v0,100024a4 <ni_init+0x68>
100024c4:	2610ffff 	addiu	s0,s0,-1
100024c8:	24040004 	li	a0,4
100024cc:	0c000bc9 	jal	10002f24 <panic>
100024d0:	afa20010 	sw	v0,16(sp)
100024d4:	8fa20010 	lw	v0,16(sp)
100024d8:	8e2416b0 	lw	a0,5808(s1)
100024dc:	0c000c4f 	jal	1000313c <hf_queue_addtail>
100024e0:	00402821 	move	a1,v0
100024e4:	1600fff4 	bnez	s0,100024b8 <ni_init+0x7c>
100024e8:	00000000 	nop
100024ec:	24100040 	li	s0,64
100024f0:	0c000874 	jal	100021d0 <_ni_read>
100024f4:	2610ffff 	addiu	s0,s0,-1
100024f8:	1600fffd 	bnez	s0,100024f0 <ni_init+0xb4>
100024fc:	3c051000 	lui	a1,0x1000
10002500:	24040100 	li	a0,256
10002504:	0c00040c 	jal	10001030 <_irq_register>
10002508:	24a521f4 	addiu	a1,a1,8692
1000250c:	0c000439 	jal	100010e4 <_irq_mask_set>
10002510:	24040100 	li	a0,256
10002514:	3c041000 	lui	a0,0x1000
10002518:	8fbf0024 	lw	ra,36(sp)
1000251c:	8fb10020 	lw	s1,32(sp)
10002520:	8fb0001c 	lw	s0,28(sp)
10002524:	24844190 	addiu	a0,a0,16784
10002528:	0800048a 	j	10001228 <kprintf>
1000252c:	27bd0028 	addiu	sp,sp,40
10002530:	0c000bc9 	jal	10002f24 <panic>
10002534:	24040004 	li	a0,4
10002538:	08000921 	j	10002484 <ni_init+0x48>
1000253c:	3c021009 	lui	v0,0x1009

10002540 <hf_cpuid>:
10002540:	03e00008 	jr	ra
10002544:	24020006 	li	v0,6

10002548 <hf_comm_create>:
10002548:	27bdffd8 	addiu	sp,sp,-40
1000254c:	afb00010 	sw	s0,16(sp)
10002550:	3090ffff 	andi	s0,a0,0xffff
10002554:	2e02001e 	sltiu	v0,s0,30
10002558:	afb10014 	sw	s1,20(sp)
1000255c:	afbf0024 	sw	ra,36(sp)
10002560:	afb40020 	sw	s4,32(sp)
10002564:	afb3001c 	sw	s3,28(sp)
10002568:	afb20018 	sw	s2,24(sp)
1000256c:	30b1ffff 	andi	s1,a1,0xffff
10002570:	10400045 	beqz	v0,10002688 <hf_comm_create+0x140>
10002574:	30c6ffff 	andi	a2,a2,0xffff
10002578:	00109080 	sll	s2,s0,0x2
1000257c:	00101940 	sll	v1,s0,0x5
10002580:	02431821 	addu	v1,s2,v1
10002584:	00701821 	addu	v1,v1,s0
10002588:	3c021001 	lui	v0,0x1001
1000258c:	00031880 	sll	v1,v1,0x2
10002590:	24426354 	addiu	v0,v0,25428
10002594:	00431021 	addu	v0,v0,v1
10002598:	8c420084 	lw	v0,132(v0)
1000259c:	00000000 	nop
100025a0:	10400039 	beqz	v0,10002688 <hf_comm_create+0x140>
100025a4:	3c141009 	lui	s4,0x1009
100025a8:	26941614 	addiu	s4,s4,5652
100025ac:	02921021 	addu	v0,s4,s2
100025b0:	8c420000 	lw	v0,0(v0)
100025b4:	00000000 	nop
100025b8:	1440002a 	bnez	v0,10002664 <hf_comm_create+0x11c>
100025bc:	3c131009 	lui	s3,0x1009
100025c0:	267315d8 	addiu	s3,s3,5592
100025c4:	02601021 	move	v0,s3
100025c8:	08000976 	j	100025d8 <hf_comm_create+0x90>
100025cc:	2665003c 	addiu	a1,s3,60
100025d0:	1045000e 	beq	v0,a1,1000260c <hf_comm_create+0xc4>
100025d4:	00000000 	nop
100025d8:	94430000 	lhu	v1,0(v0)
100025dc:	00000000 	nop
100025e0:	1471fffb 	bne	v1,s1,100025d0 <hf_comm_create+0x88>
100025e4:	24420002 	addiu	v0,v0,2
100025e8:	2402ff31 	li	v0,-207
100025ec:	8fbf0024 	lw	ra,36(sp)
100025f0:	8fb40020 	lw	s4,32(sp)
100025f4:	8fb3001c 	lw	s3,28(sp)
100025f8:	8fb20018 	lw	s2,24(sp)
100025fc:	8fb10014 	lw	s1,20(sp)
10002600:	8fb00010 	lw	s0,16(sp)
10002604:	03e00008 	jr	ra
10002608:	27bd0028 	addiu	sp,sp,40
1000260c:	24c2ffff 	addiu	v0,a2,-1
10002610:	3042ffff 	andi	v0,v0,0xffff
10002614:	2c420080 	sltiu	v0,v0,128
10002618:	10400002 	beqz	v0,10002624 <hf_comm_create+0xdc>
1000261c:	24040080 	li	a0,128
10002620:	00c02021 	move	a0,a2
10002624:	0c000c30 	jal	100030c0 <hf_queue_create>
10002628:	02929021 	addu	s2,s4,s2
1000262c:	10400018 	beqz	v0,10002690 <hf_comm_create+0x148>
10002630:	ae420000 	sw	v0,0(s2)
10002634:	00108040 	sll	s0,s0,0x1
10002638:	8fbf0024 	lw	ra,36(sp)
1000263c:	02709821 	addu	s3,s3,s0
10002640:	a6710000 	sh	s1,0(s3)
10002644:	00001021 	move	v0,zero
10002648:	8fb40020 	lw	s4,32(sp)
1000264c:	8fb3001c 	lw	s3,28(sp)
10002650:	8fb20018 	lw	s2,24(sp)
10002654:	8fb10014 	lw	s1,20(sp)
10002658:	8fb00010 	lw	s0,16(sp)
1000265c:	03e00008 	jr	ra
10002660:	27bd0028 	addiu	sp,sp,40
10002664:	8fbf0024 	lw	ra,36(sp)
10002668:	2402ff32 	li	v0,-206
1000266c:	8fb40020 	lw	s4,32(sp)
10002670:	8fb3001c 	lw	s3,28(sp)
10002674:	8fb20018 	lw	s2,24(sp)
10002678:	8fb10014 	lw	s1,20(sp)
1000267c:	8fb00010 	lw	s0,16(sp)
10002680:	03e00008 	jr	ra
10002684:	27bd0028 	addiu	sp,sp,40
10002688:	0800097b 	j	100025ec <hf_comm_create+0xa4>
1000268c:	2402ff9c 	li	v0,-100
10002690:	0800097b 	j	100025ec <hf_comm_create+0xa4>
10002694:	2402ff98 	li	v0,-104

10002698 <hf_recv>:
10002698:	27bdffb8 	addiu	sp,sp,-72
1000269c:	afb60038 	sw	s6,56(sp)
100026a0:	afb50034 	sw	s5,52(sp)
100026a4:	afb40030 	sw	s4,48(sp)
100026a8:	afb3002c 	sw	s3,44(sp)
100026ac:	afb20028 	sw	s2,40(sp)
100026b0:	afb10024 	sw	s1,36(sp)
100026b4:	afb00020 	sw	s0,32(sp)
100026b8:	00808821 	move	s1,a0
100026bc:	afbf0044 	sw	ra,68(sp)
100026c0:	afbe0040 	sw	s8,64(sp)
100026c4:	afb7003c 	sw	s7,60(sp)
100026c8:	00a08021 	move	s0,a1
100026cc:	00c09021 	move	s2,a2
100026d0:	97b3005a 	lhu	s3,90(sp)
100026d4:	0c000e45 	jal	10003914 <hf_selfid>
100026d8:	00e0b021 	move	s6,a3
100026dc:	0002a880 	sll	s5,v0,0x2
100026e0:	3c021009 	lui	v0,0x1009
100026e4:	24421614 	addiu	v0,v0,5652
100026e8:	0055a021 	addu	s4,v0,s5
100026ec:	8e840000 	lw	a0,0(s4)
100026f0:	00000000 	nop
100026f4:	108000b9 	beqz	a0,100029dc <hf_recv+0x344>
100026f8:	00000000 	nop
100026fc:	0c000c4c 	jal	10003130 <hf_queue_count>
10002700:	00000000 	nop
10002704:	14400006 	bnez	v0,10002720 <hf_recv+0x88>
10002708:	00000000 	nop
1000270c:	8e840000 	lw	a0,0(s4)
10002710:	0c000c4c 	jal	10003130 <hf_queue_count>
10002714:	00000000 	nop
10002718:	1040fffc 	beqz	v0,1000270c <hf_recv+0x74>
1000271c:	00000000 	nop
10002720:	8e840000 	lw	a0,0(s4)
10002724:	0c000c7f 	jal	100031fc <hf_queue_get>
10002728:	00002821 	move	a1,zero
1000272c:	1040fff7 	beqz	v0,1000270c <hf_recv+0x74>
10002730:	00000000 	nop
10002734:	9442000e 	lhu	v0,14(v0)
10002738:	00000000 	nop
1000273c:	1453fff3 	bne	v0,s3,1000270c <hf_recv+0x74>
10002740:	00000000 	nop
10002744:	0c00007b 	jal	100001ec <_interrupt_set>
10002748:	00002021 	move	a0,zero
1000274c:	8e840000 	lw	a0,0(s4)
10002750:	0c000c67 	jal	1000319c <hf_queue_remhead>
10002754:	0040b821 	move	s7,v0
10002758:	02e02021 	move	a0,s7
1000275c:	0c00007b 	jal	100001ec <_interrupt_set>
10002760:	afa2001c 	sw	v0,28(sp)
10002764:	8fa5001c 	lw	a1,28(sp)
10002768:	24030070 	li	v1,112
1000276c:	94a20004 	lhu	v0,4(a1)
10002770:	00000000 	nop
10002774:	a6220000 	sh	v0,0(s1)
10002778:	94a20006 	lhu	v0,6(a1)
1000277c:	00000000 	nop
10002780:	a6020000 	sh	v0,0(s0)
10002784:	94a2000a 	lhu	v0,10(a1)
10002788:	00000000 	nop
1000278c:	0043001b 	divu	zero,v0,v1
10002790:	a6c20000 	sh	v0,0(s6)
10002794:	94b1000c 	lhu	s1,12(a1)
10002798:	00001810 	mfhi	v1
1000279c:	00002012 	mflo	a0
100027a0:	14600083 	bnez	v1,100029b0 <hf_recv+0x318>
100027a4:	00000000 	nop
100027a8:	3084ffff 	andi	a0,a0,0xffff
100027ac:	afa40014 	sw	a0,20(sp)
100027b0:	8fa60014 	lw	a2,20(sp)
100027b4:	00000000 	nop
100027b8:	2cc30002 	sltiu	v1,a2,2
100027bc:	14600084 	bnez	v1,100029d0 <hf_recv+0x338>
100027c0:	00001821 	move	v1,zero
100027c4:	8fa30014 	lw	v1,20(sp)
100027c8:	2626ffff 	addiu	a2,s1,-1
100027cc:	00661021 	addu	v0,v1,a2
100027d0:	3c041009 	lui	a0,0x1009
100027d4:	26310001 	addiu	s1,s1,1
100027d8:	3042ffff 	andi	v0,v0,0xffff
100027dc:	24841614 	addiu	a0,a0,5652
100027e0:	afa60018 	sw	a2,24(sp)
100027e4:	3231ffff 	andi	s1,s1,0xffff
100027e8:	0240a021 	move	s4,s2
100027ec:	afa20010 	sw	v0,16(sp)
100027f0:	0000f021 	move	s8,zero
100027f4:	3c171009 	lui	s7,0x1009
100027f8:	00958021 	addu	s0,a0,s5
100027fc:	24a30010 	addiu	v1,a1,16
10002800:	02801021 	move	v0,s4
10002804:	24040038 	li	a0,56
10002808:	94660000 	lhu	a2,0(v1)
1000280c:	2484ffff 	addiu	a0,a0,-1
10002810:	00063202 	srl	a2,a2,0x8
10002814:	a0460000 	sb	a2,0(v0)
10002818:	94660000 	lhu	a2,0(v1)
1000281c:	24630002 	addiu	v1,v1,2
10002820:	a0460001 	sb	a2,1(v0)
10002824:	1480fff8 	bnez	a0,10002808 <hf_recv+0x170>
10002828:	24420002 	addiu	v0,v0,2
1000282c:	0c00007b 	jal	100001ec <_interrupt_set>
10002830:	afa5001c 	sw	a1,28(sp)
10002834:	8ee416b0 	lw	a0,5808(s7)
10002838:	8fa5001c 	lw	a1,28(sp)
1000283c:	0c000c4f 	jal	1000313c <hf_queue_addtail>
10002840:	0040a821 	move	s5,v0
10002844:	0c00007b 	jal	100001ec <_interrupt_set>
10002848:	02a02021 	move	a0,s5
1000284c:	8e040000 	lw	a0,0(s0)
10002850:	0c000c4c 	jal	10003130 <hf_queue_count>
10002854:	00000000 	nop
10002858:	1040fffc 	beqz	v0,1000284c <hf_recv+0x1b4>
1000285c:	00000000 	nop
10002860:	8e040000 	lw	a0,0(s0)
10002864:	0c000c7f 	jal	100031fc <hf_queue_get>
10002868:	00002821 	move	a1,zero
1000286c:	1040fff7 	beqz	v0,1000284c <hf_recv+0x1b4>
10002870:	00000000 	nop
10002874:	9442000e 	lhu	v0,14(v0)
10002878:	00000000 	nop
1000287c:	1453fff3 	bne	v0,s3,1000284c <hf_recv+0x1b4>
10002880:	00000000 	nop
10002884:	0c00007b 	jal	100001ec <_interrupt_set>
10002888:	00002021 	move	a0,zero
1000288c:	8e040000 	lw	a0,0(s0)
10002890:	0c000c67 	jal	1000319c <hf_queue_remhead>
10002894:	0040a821 	move	s5,v0
10002898:	02a02021 	move	a0,s5
1000289c:	0c00007b 	jal	100001ec <_interrupt_set>
100028a0:	afa2001c 	sw	v0,28(sp)
100028a4:	8fa30010 	lw	v1,16(sp)
100028a8:	8fa5001c 	lw	a1,28(sp)
100028ac:	12230009 	beq	s1,v1,100028d4 <hf_recv+0x23c>
100028b0:	26220001 	addiu	v0,s1,1
100028b4:	94a3000c 	lhu	v1,12(a1)
100028b8:	00000000 	nop
100028bc:	10710002 	beq	v1,s1,100028c8 <hf_recv+0x230>
100028c0:	3042ffff 	andi	v0,v0,0xffff
100028c4:	241eff34 	li	s8,-204
100028c8:	26940070 	addiu	s4,s4,112
100028cc:	080009ff 	j	100027fc <hf_recv+0x164>
100028d0:	00408821 	move	s1,v0
100028d4:	8fa60014 	lw	a2,20(sp)
100028d8:	8fa30018 	lw	v1,24(sp)
100028dc:	24c2fffe 	addiu	v0,a2,-2
100028e0:	3042ffff 	andi	v0,v0,0xffff
100028e4:	00662021 	addu	a0,v1,a2
100028e8:	24420001 	addiu	v0,v0,1
100028ec:	94a6000c 	lhu	a2,12(a1)
100028f0:	00021900 	sll	v1,v0,0x4
100028f4:	3084ffff 	andi	a0,a0,0xffff
100028f8:	000211c0 	sll	v0,v0,0x7
100028fc:	00431823 	subu	v1,v0,v1
10002900:	96c20000 	lhu	v0,0(s6)
10002904:	10c40002 	beq	a2,a0,10002910 <hf_recv+0x278>
10002908:	00000000 	nop
1000290c:	241eff34 	li	s8,-204
10002910:	24a40010 	addiu	a0,a1,16
10002914:	02439021 	addu	s2,s2,v1
10002918:	08000a53 	j	1000294c <hf_recv+0x2b4>
1000291c:	2466006e 	addiu	a2,v1,110
10002920:	94820000 	lhu	v0,0(a0)
10002924:	00000000 	nop
10002928:	00021202 	srl	v0,v0,0x8
1000292c:	a2420000 	sb	v0,0(s2)
10002930:	94820000 	lhu	v0,0(a0)
10002934:	24840002 	addiu	a0,a0,2
10002938:	a2420001 	sb	v0,1(s2)
1000293c:	10660006 	beq	v1,a2,10002958 <hf_recv+0x2c0>
10002940:	26520002 	addiu	s2,s2,2
10002944:	96c20000 	lhu	v0,0(s6)
10002948:	24630002 	addiu	v1,v1,2
1000294c:	0062102a 	slt	v0,v1,v0
10002950:	1440fff3 	bnez	v0,10002920 <hf_recv+0x288>
10002954:	00000000 	nop
10002958:	00002021 	move	a0,zero
1000295c:	0c00007b 	jal	100001ec <_interrupt_set>
10002960:	afa5001c 	sw	a1,28(sp)
10002964:	8ee416b0 	lw	a0,5808(s7)
10002968:	8fa5001c 	lw	a1,28(sp)
1000296c:	0c000c4f 	jal	1000313c <hf_queue_addtail>
10002970:	00408021 	move	s0,v0
10002974:	0c00007b 	jal	100001ec <_interrupt_set>
10002978:	02002021 	move	a0,s0
1000297c:	8fbf0044 	lw	ra,68(sp)
10002980:	03c01021 	move	v0,s8
10002984:	8fb7003c 	lw	s7,60(sp)
10002988:	8fbe0040 	lw	s8,64(sp)
1000298c:	8fb60038 	lw	s6,56(sp)
10002990:	8fb50034 	lw	s5,52(sp)
10002994:	8fb40030 	lw	s4,48(sp)
10002998:	8fb3002c 	lw	s3,44(sp)
1000299c:	8fb20028 	lw	s2,40(sp)
100029a0:	8fb10024 	lw	s1,36(sp)
100029a4:	8fb00020 	lw	s0,32(sp)
100029a8:	03e00008 	jr	ra
100029ac:	27bd0048 	addiu	sp,sp,72
100029b0:	24840001 	addiu	a0,a0,1
100029b4:	3084ffff 	andi	a0,a0,0xffff
100029b8:	afa40014 	sw	a0,20(sp)
100029bc:	8fa60014 	lw	a2,20(sp)
100029c0:	00000000 	nop
100029c4:	2cc30002 	sltiu	v1,a2,2
100029c8:	1060ff7e 	beqz	v1,100027c4 <hf_recv+0x12c>
100029cc:	00001821 	move	v1,zero
100029d0:	0000f021 	move	s8,zero
100029d4:	08000a44 	j	10002910 <hf_recv+0x278>
100029d8:	3c171009 	lui	s7,0x1009
100029dc:	08000a5f 	j	1000297c <hf_recv+0x2e4>
100029e0:	241eff32 	li	s8,-206

100029e4 <hf_send>:
100029e4:	27bdff30 	addiu	sp,sp,-208
100029e8:	97a300e2 	lhu	v1,226(sp)
100029ec:	3084ffff 	andi	a0,a0,0xffff
100029f0:	afb600c0 	sw	s6,192(sp)
100029f4:	afb100ac 	sw	s1,172(sp)
100029f8:	afb000a8 	sw	s0,168(sp)
100029fc:	30b1ffff 	andi	s1,a1,0xffff
10002a00:	afa30094 	sw	v1,148(sp)
10002a04:	afa400a4 	sw	a0,164(sp)
10002a08:	afbf00cc 	sw	ra,204(sp)
10002a0c:	afbe00c8 	sw	s8,200(sp)
10002a10:	afb700c4 	sw	s7,196(sp)
10002a14:	afb500bc 	sw	s5,188(sp)
10002a18:	afb400b8 	sw	s4,184(sp)
10002a1c:	afb300b4 	sw	s3,180(sp)
10002a20:	afb200b0 	sw	s2,176(sp)
10002a24:	00c08021 	move	s0,a2
10002a28:	0c000e45 	jal	10003914 <hf_selfid>
10002a2c:	30f6ffff 	andi	s6,a3,0xffff
10002a30:	3c031009 	lui	v1,0x1009
10002a34:	00022880 	sll	a1,v0,0x2
10002a38:	24631614 	addiu	v1,v1,5652
10002a3c:	00a31821 	addu	v1,a1,v1
10002a40:	8c630000 	lw	v1,0(v1)
10002a44:	8fa400a4 	lw	a0,164(sp)
10002a48:	106000c5 	beqz	v1,10002d60 <hf_send+0x37c>
10002a4c:	24030070 	li	v1,112
10002a50:	02c3001b 	divu	zero,s6,v1
10002a54:	00001810 	mfhi	v1
10002a58:	00002812 	mflo	a1
10002a5c:	146000aa 	bnez	v1,10002d08 <hf_send+0x324>
10002a60:	24030003 	li	v1,3
10002a64:	30a5ffff 	andi	a1,a1,0xffff
10002a68:	afa50090 	sw	a1,144(sp)
10002a6c:	8fa50090 	lw	a1,144(sp)
10002a70:	0083001b 	divu	zero,a0,v1
10002a74:	2ca30002 	sltiu	v1,a1,2
10002a78:	146000ab 	bnez	v1,10002d28 <hf_send+0x344>
10002a7c:	00000000 	nop
10002a80:	00021040 	sll	v0,v0,0x1
10002a84:	afa200a0 	sw	v0,160(sp)
10002a88:	8fa500a0 	lw	a1,160(sp)
10002a8c:	3c021009 	lui	v0,0x1009
10002a90:	244215d8 	addiu	v0,v0,5592
10002a94:	00001810 	mfhi	v1
10002a98:	00452821 	addu	a1,v0,a1
10002a9c:	afa2009c 	sw	v0,156(sp)
10002aa0:	00002012 	mflo	a0
10002aa4:	00031100 	sll	v0,v1,0x4
10002aa8:	0200a821 	move	s5,s0
10002aac:	24140001 	li	s4,1
10002ab0:	27b20090 	addiu	s2,sp,144
10002ab4:	27b70010 	addiu	s7,sp,16
10002ab8:	afa50098 	sw	a1,152(sp)
10002abc:	0082f025 	or	s8,a0,v0
10002ac0:	8fa30098 	lw	v1,152(sp)
10002ac4:	2404003e 	li	a0,62
10002ac8:	94620000 	lhu	v0,0(v1)
10002acc:	8fa30094 	lw	v1,148(sp)
10002ad0:	24050006 	li	a1,6
10002ad4:	a7a20016 	sh	v0,22(sp)
10002ad8:	a7a3001e 	sh	v1,30(sp)
10002adc:	a7be0010 	sh	s8,16(sp)
10002ae0:	a7a40012 	sh	a0,18(sp)
10002ae4:	a7a50014 	sh	a1,20(sp)
10002ae8:	a7b10018 	sh	s1,24(sp)
10002aec:	a7b6001a 	sh	s6,26(sp)
10002af0:	a7b4001c 	sh	s4,28(sp)
10002af4:	27a30020 	addiu	v1,sp,32
10002af8:	02a01021 	move	v0,s5
10002afc:	80440000 	lb	a0,0(v0)
10002b00:	80450001 	lb	a1,1(v0)
10002b04:	00042200 	sll	a0,a0,0x8
10002b08:	00852025 	or	a0,a0,a1
10002b0c:	a4640000 	sh	a0,0(v1)
10002b10:	24630002 	addiu	v1,v1,2
10002b14:	1643fff9 	bne	s2,v1,10002afc <hf_send+0x118>
10002b18:	24420002 	addiu	v0,v0,2
10002b1c:	0c000870 	jal	100021c0 <_ni_status>
10002b20:	00000000 	nop
10002b24:	30420001 	andi	v0,v0,0x1
10002b28:	1040fffc 	beqz	v0,10002b1c <hf_send+0x138>
10002b2c:	00000000 	nop
10002b30:	0c00007b 	jal	100001ec <_interrupt_set>
10002b34:	00002021 	move	a0,zero
10002b38:	0c000870 	jal	100021c0 <_ni_status>
10002b3c:	00409821 	move	s3,v0
10002b40:	30420001 	andi	v0,v0,0x1
10002b44:	1440000a 	bnez	v0,10002b70 <hf_send+0x18c>
10002b48:	02602021 	move	a0,s3
10002b4c:	0c00007b 	jal	100001ec <_interrupt_set>
10002b50:	00000000 	nop
10002b54:	0c000870 	jal	100021c0 <_ni_status>
10002b58:	00000000 	nop
10002b5c:	30420001 	andi	v0,v0,0x1
10002b60:	1040ffee 	beqz	v0,10002b1c <hf_send+0x138>
10002b64:	00000000 	nop
10002b68:	08000acc 	j	10002b30 <hf_send+0x14c>
10002b6c:	00000000 	nop
10002b70:	02e01021 	move	v0,s7
10002b74:	94440000 	lhu	a0,0(v0)
10002b78:	24420002 	addiu	v0,v0,2
10002b7c:	0c000878 	jal	100021e0 <_ni_write>
10002b80:	afa200a4 	sw	v0,164(sp)
10002b84:	8fa200a4 	lw	v0,164(sp)
10002b88:	00000000 	nop
10002b8c:	1642fff9 	bne	s2,v0,10002b74 <hf_send+0x190>
10002b90:	00000000 	nop
10002b94:	0c00007b 	jal	100001ec <_interrupt_set>
10002b98:	02602021 	move	a0,s3
10002b9c:	26940001 	addiu	s4,s4,1
10002ba0:	8fa50090 	lw	a1,144(sp)
10002ba4:	3294ffff 	andi	s4,s4,0xffff
10002ba8:	1685ffc5 	bne	s4,a1,10002ac0 <hf_send+0xdc>
10002bac:	26b50070 	addiu	s5,s5,112
10002bb0:	2682fffe 	addiu	v0,s4,-2
10002bb4:	3042ffff 	andi	v0,v0,0xffff
10002bb8:	24420001 	addiu	v0,v0,1
10002bbc:	00021900 	sll	v1,v0,0x4
10002bc0:	000211c0 	sll	v0,v0,0x7
10002bc4:	00432823 	subu	a1,v0,v1
10002bc8:	8fa3009c 	lw	v1,156(sp)
10002bcc:	8fa400a0 	lw	a0,160(sp)
10002bd0:	a7be0010 	sh	s8,16(sp)
10002bd4:	00641021 	addu	v0,v1,a0
10002bd8:	2403003e 	li	v1,62
10002bdc:	a7a30012 	sh	v1,18(sp)
10002be0:	24030006 	li	v1,6
10002be4:	94420000 	lhu	v0,0(v0)
10002be8:	a7a30014 	sh	v1,20(sp)
10002bec:	8fa30094 	lw	v1,148(sp)
10002bf0:	a7a20016 	sh	v0,22(sp)
10002bf4:	a7b10018 	sh	s1,24(sp)
10002bf8:	a7b6001a 	sh	s6,26(sp)
10002bfc:	a7b4001c 	sh	s4,28(sp)
10002c00:	a7a3001e 	sh	v1,30(sp)
10002c04:	02058021 	addu	s0,s0,a1
10002c08:	24020008 	li	v0,8
10002c0c:	02e53823 	subu	a3,s7,a1
10002c10:	08000b0f 	j	10002c3c <hf_send+0x258>
10002c14:	24080040 	li	t0,64
10002c18:	82030000 	lb	v1,0(s0)
10002c1c:	82060001 	lb	a2,1(s0)
10002c20:	00031a00 	sll	v1,v1,0x8
10002c24:	00661825 	or	v1,v1,a2
10002c28:	24420001 	addiu	v0,v0,1
10002c2c:	a4830010 	sh	v1,16(a0)
10002c30:	24a50002 	addiu	a1,a1,2
10002c34:	1048000b 	beq	v0,t0,10002c64 <hf_send+0x280>
10002c38:	26100002 	addiu	s0,s0,2
10002c3c:	00b6182a 	slt	v1,a1,s6
10002c40:	1460fff5 	bnez	v1,10002c18 <hf_send+0x234>
10002c44:	00e52021 	addu	a0,a3,a1
10002c48:	00021040 	sll	v0,v0,0x1
10002c4c:	02e21021 	addu	v0,s7,v0
10002c50:	2403dead 	li	v1,-8531
10002c54:	a4430000 	sh	v1,0(v0)
10002c58:	24420002 	addiu	v0,v0,2
10002c5c:	1642fffd 	bne	s2,v0,10002c54 <hf_send+0x270>
10002c60:	00000000 	nop
10002c64:	0c000870 	jal	100021c0 <_ni_status>
10002c68:	00000000 	nop
10002c6c:	30420001 	andi	v0,v0,0x1
10002c70:	1040fffc 	beqz	v0,10002c64 <hf_send+0x280>
10002c74:	00000000 	nop
10002c78:	0c00007b 	jal	100001ec <_interrupt_set>
10002c7c:	00002021 	move	a0,zero
10002c80:	0c000870 	jal	100021c0 <_ni_status>
10002c84:	00408021 	move	s0,v0
10002c88:	30420001 	andi	v0,v0,0x1
10002c8c:	1440000a 	bnez	v0,10002cb8 <hf_send+0x2d4>
10002c90:	02002021 	move	a0,s0
10002c94:	0c00007b 	jal	100001ec <_interrupt_set>
10002c98:	00000000 	nop
10002c9c:	0c000870 	jal	100021c0 <_ni_status>
10002ca0:	00000000 	nop
10002ca4:	30420001 	andi	v0,v0,0x1
10002ca8:	1040ffee 	beqz	v0,10002c64 <hf_send+0x280>
10002cac:	00000000 	nop
10002cb0:	08000b1e 	j	10002c78 <hf_send+0x294>
10002cb4:	00000000 	nop
10002cb8:	96e40000 	lhu	a0,0(s7)
10002cbc:	0c000878 	jal	100021e0 <_ni_write>
10002cc0:	26f70002 	addiu	s7,s7,2
10002cc4:	1657fffc 	bne	s2,s7,10002cb8 <hf_send+0x2d4>
10002cc8:	00000000 	nop
10002ccc:	0c00007b 	jal	100001ec <_interrupt_set>
10002cd0:	02002021 	move	a0,s0
10002cd4:	00001021 	move	v0,zero
10002cd8:	8fbf00cc 	lw	ra,204(sp)
10002cdc:	8fbe00c8 	lw	s8,200(sp)
10002ce0:	8fb700c4 	lw	s7,196(sp)
10002ce4:	8fb600c0 	lw	s6,192(sp)
10002ce8:	8fb500bc 	lw	s5,188(sp)
10002cec:	8fb400b8 	lw	s4,184(sp)
10002cf0:	8fb300b4 	lw	s3,180(sp)
10002cf4:	8fb200b0 	lw	s2,176(sp)
10002cf8:	8fb100ac 	lw	s1,172(sp)
10002cfc:	8fb000a8 	lw	s0,168(sp)
10002d00:	03e00008 	jr	ra
10002d04:	27bd00d0 	addiu	sp,sp,208
10002d08:	24a50001 	addiu	a1,a1,1
10002d0c:	30a5ffff 	andi	a1,a1,0xffff
10002d10:	afa50090 	sw	a1,144(sp)
10002d14:	8fa50090 	lw	a1,144(sp)
10002d18:	0083001b 	divu	zero,a0,v1
10002d1c:	2ca30002 	sltiu	v1,a1,2
10002d20:	1060ff57 	beqz	v1,10002a80 <hf_send+0x9c>
10002d24:	00000000 	nop
10002d28:	00021040 	sll	v0,v0,0x1
10002d2c:	afa200a0 	sw	v0,160(sp)
10002d30:	3c021009 	lui	v0,0x1009
10002d34:	244215d8 	addiu	v0,v0,5592
10002d38:	00001810 	mfhi	v1
10002d3c:	afa2009c 	sw	v0,156(sp)
10002d40:	00031100 	sll	v0,v1,0x4
10002d44:	00002012 	mflo	a0
10002d48:	24140001 	li	s4,1
10002d4c:	00002821 	move	a1,zero
10002d50:	27b20090 	addiu	s2,sp,144
10002d54:	27b70010 	addiu	s7,sp,16
10002d58:	08000af2 	j	10002bc8 <hf_send+0x1e4>
10002d5c:	0082f025 	or	s8,a0,v0
10002d60:	08000b36 	j	10002cd8 <hf_send+0x2f4>
10002d64:	2402ff32 	li	v0,-206

10002d68 <hf_recvack>:
10002d68:	27bdffd8 	addiu	sp,sp,-40
10002d6c:	97a2003a 	lhu	v0,58(sp)
10002d70:	afb20020 	sw	s2,32(sp)
10002d74:	afb1001c 	sw	s1,28(sp)
10002d78:	afb00018 	sw	s0,24(sp)
10002d7c:	afbf0024 	sw	ra,36(sp)
10002d80:	00809021 	move	s2,a0
10002d84:	00a08821 	move	s1,a1
10002d88:	0c0009a6 	jal	10002698 <hf_recv>
10002d8c:	afa20010 	sw	v0,16(sp)
10002d90:	14400009 	bnez	v0,10002db8 <hf_recvack+0x50>
10002d94:	00408021 	move	s0,v0
10002d98:	96440000 	lhu	a0,0(s2)
10002d9c:	96250000 	lhu	a1,0(s1)
10002da0:	3c061000 	lui	a2,0x1000
10002da4:	3402ffff 	li	v0,0xffff
10002da8:	24c641b0 	addiu	a2,a2,16816
10002dac:	24070003 	li	a3,3
10002db0:	0c000a79 	jal	100029e4 <hf_send>
10002db4:	afa20010 	sw	v0,16(sp)
10002db8:	8fbf0024 	lw	ra,36(sp)
10002dbc:	02001021 	move	v0,s0
10002dc0:	8fb20020 	lw	s2,32(sp)
10002dc4:	8fb1001c 	lw	s1,28(sp)
10002dc8:	8fb00018 	lw	s0,24(sp)
10002dcc:	03e00008 	jr	ra
10002dd0:	27bd0028 	addiu	sp,sp,40

10002dd4 <hf_sendack>:
10002dd4:	27bdffc0 	addiu	sp,sp,-64
10002dd8:	97a30052 	lhu	v1,82(sp)
10002ddc:	00e01021 	move	v0,a3
10002de0:	3084ffff 	andi	a0,a0,0xffff
10002de4:	30a5ffff 	andi	a1,a1,0xffff
10002de8:	30e7ffff 	andi	a3,a3,0xffff
10002dec:	afb2002c 	sw	s2,44(sp)
10002df0:	afb10028 	sw	s1,40(sp)
10002df4:	afbf003c 	sw	ra,60(sp)
10002df8:	afb50038 	sw	s5,56(sp)
10002dfc:	afb40034 	sw	s4,52(sp)
10002e00:	afb30030 	sw	s3,48(sp)
10002e04:	afb00024 	sw	s0,36(sp)
10002e08:	8fb10054 	lw	s1,84(sp)
10002e0c:	a7a2004c 	sh	v0,76(sp)
10002e10:	0c000a79 	jal	100029e4 <hf_send>
10002e14:	afa30010 	sw	v1,16(sp)
10002e18:	1040000b 	beqz	v0,10002e48 <hf_sendack+0x74>
10002e1c:	00409021 	move	s2,v0
10002e20:	8fbf003c 	lw	ra,60(sp)
10002e24:	02401021 	move	v0,s2
10002e28:	8fb50038 	lw	s5,56(sp)
10002e2c:	8fb40034 	lw	s4,52(sp)
10002e30:	8fb30030 	lw	s3,48(sp)
10002e34:	8fb2002c 	lw	s2,44(sp)
10002e38:	8fb10028 	lw	s1,40(sp)
10002e3c:	8fb00024 	lw	s0,36(sp)
10002e40:	03e00008 	jr	ra
10002e44:	27bd0040 	addiu	sp,sp,64
10002e48:	0c000e45 	jal	10003914 <hf_selfid>
10002e4c:	3414ffff 	li	s4,0xffff
10002e50:	0c0003dc 	jal	10000f70 <_read_us>
10002e54:	00408021 	move	s0,v0
10002e58:	00602821 	move	a1,v1
10002e5c:	00402021 	move	a0,v0
10002e60:	240703e8 	li	a3,1000
10002e64:	0c000704 	jal	10001c10 <__udivdi3>
10002e68:	00003021 	move	a2,zero
10002e6c:	3c021009 	lui	v0,0x1009
10002e70:	00108080 	sll	s0,s0,0x2
10002e74:	24421614 	addiu	v0,v0,5652
10002e78:	00609821 	move	s3,v1
10002e7c:	00508021 	addu	s0,v0,s0
10002e80:	24150003 	li	s5,3
10002e84:	8e040000 	lw	a0,0(s0)
10002e88:	0c000c4c 	jal	10003130 <hf_queue_count>
10002e8c:	00000000 	nop
10002e90:	1040000a 	beqz	v0,10002ebc <hf_sendack+0xe8>
10002e94:	00002821 	move	a1,zero
10002e98:	8e040000 	lw	a0,0(s0)
10002e9c:	0c000c7f 	jal	100031fc <hf_queue_get>
10002ea0:	00000000 	nop
10002ea4:	10400005 	beqz	v0,10002ebc <hf_sendack+0xe8>
10002ea8:	00000000 	nop
10002eac:	9443000e 	lhu	v1,14(v0)
10002eb0:	00000000 	nop
10002eb4:	10740010 	beq	v1,s4,10002ef8 <hf_sendack+0x124>
10002eb8:	00000000 	nop
10002ebc:	0c0003dc 	jal	10000f70 <_read_us>
10002ec0:	00000000 	nop
10002ec4:	00402021 	move	a0,v0
10002ec8:	00602821 	move	a1,v1
10002ecc:	240703e8 	li	a3,1000
10002ed0:	0c000704 	jal	10001c10 <__udivdi3>
10002ed4:	00003021 	move	a2,zero
10002ed8:	00732023 	subu	a0,v1,s3
10002edc:	0064182b 	sltu	v1,v1,a0
10002ee0:	14430003 	bne	v0,v1,10002ef0 <hf_sendack+0x11c>
10002ee4:	0224202b 	sltu	a0,s1,a0
10002ee8:	1080ffe6 	beqz	a0,10002e84 <hf_sendack+0xb0>
10002eec:	00000000 	nop
10002ef0:	08000b88 	j	10002e20 <hf_sendack+0x4c>
10002ef4:	2412ff35 	li	s2,-203
10002ef8:	9442000a 	lhu	v0,10(v0)
10002efc:	00000000 	nop
10002f00:	1455ffee 	bne	v0,s5,10002ebc <hf_sendack+0xe8>
10002f04:	27a50018 	addiu	a1,sp,24
10002f08:	27a4001a 	addiu	a0,sp,26
10002f0c:	27a6001c 	addiu	a2,sp,28
10002f10:	27a7004c 	addiu	a3,sp,76
10002f14:	0c0009a6 	jal	10002698 <hf_recv>
10002f18:	afb40010 	sw	s4,16(sp)
10002f1c:	08000b88 	j	10002e20 <hf_sendack+0x4c>
10002f20:	00000000 	nop

10002f24 <panic>:
10002f24:	27bdffe8 	addiu	sp,sp,-24
10002f28:	afb00010 	sw	s0,16(sp)
10002f2c:	00808021 	move	s0,a0
10002f30:	afbf0014 	sw	ra,20(sp)
10002f34:	0c00007b 	jal	100001ec <_interrupt_set>
10002f38:	00002021 	move	a0,zero
10002f3c:	3c021009 	lui	v0,0x1009
10002f40:	9445168c 	lhu	a1,5772(v0)
10002f44:	3c041000 	lui	a0,0x1000
10002f48:	0c00048a 	jal	10001228 <kprintf>
10002f4c:	248441b4 	addiu	a0,a0,16820
10002f50:	2e02000e 	sltiu	v0,s0,14
10002f54:	14400009 	bnez	v0,10002f7c <panic+0x58>
10002f58:	3c021000 	lui	v0,0x1000
10002f5c:	3c041000 	lui	a0,0x1000
10002f60:	0c00048a 	jal	10001228 <kprintf>
10002f64:	24844338 	addiu	a0,a0,17208
10002f68:	3c041000 	lui	a0,0x1000
10002f6c:	0c0006ad 	jal	10001ab4 <printf>
10002f70:	24844348 	addiu	a0,a0,17224
10002f74:	08000bdd 	j	10002f74 <panic+0x50>
10002f78:	00000000 	nop
10002f7c:	2442435c 	addiu	v0,v0,17244
10002f80:	00108080 	sll	s0,s0,0x2
10002f84:	00508021 	addu	s0,v0,s0
10002f88:	8e020000 	lw	v0,0(s0)
10002f8c:	00000000 	nop
10002f90:	00400008 	jr	v0
10002f94:	00000000 	nop
10002f98:	3c041000 	lui	a0,0x1000
10002f9c:	0c00048a 	jal	10001228 <kprintf>
10002fa0:	24844324 	addiu	a0,a0,17188
10002fa4:	08000bdb 	j	10002f6c <panic+0x48>
10002fa8:	3c041000 	lui	a0,0x1000
10002fac:	3c041000 	lui	a0,0x1000
10002fb0:	0c00048a 	jal	10001228 <kprintf>
10002fb4:	24844308 	addiu	a0,a0,17160
10002fb8:	08000bdb 	j	10002f6c <panic+0x48>
10002fbc:	3c041000 	lui	a0,0x1000
10002fc0:	3c041000 	lui	a0,0x1000
10002fc4:	0c00048a 	jal	10001228 <kprintf>
10002fc8:	248442e4 	addiu	a0,a0,17124
10002fcc:	08000bdb 	j	10002f6c <panic+0x48>
10002fd0:	3c041000 	lui	a0,0x1000
10002fd4:	3c041000 	lui	a0,0x1000
10002fd8:	0c00048a 	jal	10001228 <kprintf>
10002fdc:	248442c4 	addiu	a0,a0,17092
10002fe0:	08000bdb 	j	10002f6c <panic+0x48>
10002fe4:	3c041000 	lui	a0,0x1000
10002fe8:	3c041000 	lui	a0,0x1000
10002fec:	0c00048a 	jal	10001228 <kprintf>
10002ff0:	248442a4 	addiu	a0,a0,17060
10002ff4:	08000bdb 	j	10002f6c <panic+0x48>
10002ff8:	3c041000 	lui	a0,0x1000
10002ffc:	3c041000 	lui	a0,0x1000
10003000:	0c00048a 	jal	10001228 <kprintf>
10003004:	2484428c 	addiu	a0,a0,17036
10003008:	08000bdb 	j	10002f6c <panic+0x48>
1000300c:	3c041000 	lui	a0,0x1000
10003010:	3c041000 	lui	a0,0x1000
10003014:	0c00048a 	jal	10001228 <kprintf>
10003018:	24844258 	addiu	a0,a0,16984
1000301c:	08000bdb 	j	10002f6c <panic+0x48>
10003020:	3c041000 	lui	a0,0x1000
10003024:	3c041000 	lui	a0,0x1000
10003028:	0c00048a 	jal	10001228 <kprintf>
1000302c:	24844270 	addiu	a0,a0,17008
10003030:	08000bdb 	j	10002f6c <panic+0x48>
10003034:	3c041000 	lui	a0,0x1000
10003038:	3c041000 	lui	a0,0x1000
1000303c:	0c00048a 	jal	10001228 <kprintf>
10003040:	24844240 	addiu	a0,a0,16960
10003044:	08000bdb 	j	10002f6c <panic+0x48>
10003048:	3c041000 	lui	a0,0x1000
1000304c:	3c041000 	lui	a0,0x1000
10003050:	0c00048a 	jal	10001228 <kprintf>
10003054:	24844230 	addiu	a0,a0,16944
10003058:	08000bdb 	j	10002f6c <panic+0x48>
1000305c:	3c041000 	lui	a0,0x1000
10003060:	3c041000 	lui	a0,0x1000
10003064:	0c00048a 	jal	10001228 <kprintf>
10003068:	24844210 	addiu	a0,a0,16912
1000306c:	08000bdb 	j	10002f6c <panic+0x48>
10003070:	3c041000 	lui	a0,0x1000
10003074:	3c041000 	lui	a0,0x1000
10003078:	0c00048a 	jal	10001228 <kprintf>
1000307c:	24844200 	addiu	a0,a0,16896
10003080:	08000bdb 	j	10002f6c <panic+0x48>
10003084:	3c041000 	lui	a0,0x1000
10003088:	3c041000 	lui	a0,0x1000
1000308c:	0c00048a 	jal	10001228 <kprintf>
10003090:	248441e4 	addiu	a0,a0,16868
10003094:	08000bdb 	j	10002f6c <panic+0x48>
10003098:	3c041000 	lui	a0,0x1000
1000309c:	3c041000 	lui	a0,0x1000
100030a0:	0c00048a 	jal	10001228 <kprintf>
100030a4:	248441d0 	addiu	a0,a0,16848
100030a8:	08000bdb 	j	10002f6c <panic+0x48>
100030ac:	3c041000 	lui	a0,0x1000

100030b0 <hf_schedlock>:
100030b0:	2c840001 	sltiu	a0,a0,1
100030b4:	3c021009 	lui	v0,0x1009
100030b8:	03e00008 	jr	ra
100030bc:	a44416a8 	sh	a0,5800(v0)

100030c0 <hf_queue_create>:
100030c0:	27bdffe0 	addiu	sp,sp,-32
100030c4:	afb10018 	sw	s1,24(sp)
100030c8:	00808821 	move	s1,a0
100030cc:	afb00014 	sw	s0,20(sp)
100030d0:	afbf001c 	sw	ra,28(sp)
100030d4:	0c0007e4 	jal	10001f90 <hf_malloc>
100030d8:	24040014 	li	a0,20
100030dc:	1040000a 	beqz	v0,10003108 <hf_queue_create+0x48>
100030e0:	00408021 	move	s0,v0
100030e4:	26240001 	addiu	a0,s1,1
100030e8:	ac440000 	sw	a0,0(v0)
100030ec:	0c0007e4 	jal	10001f90 <hf_malloc>
100030f0:	00042080 	sll	a0,a0,0x2
100030f4:	1040000a 	beqz	v0,10003120 <hf_queue_create+0x60>
100030f8:	ae020010 	sw	v0,16(s0)
100030fc:	ae00000c 	sw	zero,12(s0)
10003100:	ae000008 	sw	zero,8(s0)
10003104:	ae000004 	sw	zero,4(s0)
10003108:	8fbf001c 	lw	ra,28(sp)
1000310c:	02001021 	move	v0,s0
10003110:	8fb10018 	lw	s1,24(sp)
10003114:	8fb00014 	lw	s0,20(sp)
10003118:	03e00008 	jr	ra
1000311c:	27bd0020 	addiu	sp,sp,32
10003120:	0c0007cd 	jal	10001f34 <hf_free>
10003124:	02002021 	move	a0,s0
10003128:	08000c42 	j	10003108 <hf_queue_create+0x48>
1000312c:	00008021 	move	s0,zero

10003130 <hf_queue_count>:
10003130:	8c820004 	lw	v0,4(a0)
10003134:	03e00008 	jr	ra
10003138:	00000000 	nop

1000313c <hf_queue_addtail>:
1000313c:	8c820000 	lw	v0,0(a0)
10003140:	00000000 	nop
10003144:	10400011 	beqz	v0,1000318c <hf_queue_addtail+0x50>
10003148:	00000000 	nop
1000314c:	8c86000c 	lw	a2,12(a0)
10003150:	8c870008 	lw	a3,8(a0)
10003154:	24c30001 	addiu	v1,a2,1
10003158:	0062001a 	div	zero,v1,v0
1000315c:	00001810 	mfhi	v1
10003160:	10e3000c 	beq	a3,v1,10003194 <hf_queue_addtail+0x58>
10003164:	00063080 	sll	a2,a2,0x2
10003168:	8c820010 	lw	v0,16(a0)
1000316c:	8c870004 	lw	a3,4(a0)
10003170:	00463021 	addu	a2,v0,a2
10003174:	24e70001 	addiu	a3,a3,1
10003178:	acc50000 	sw	a1,0(a2)
1000317c:	00001021 	move	v0,zero
10003180:	ac83000c 	sw	v1,12(a0)
10003184:	03e00008 	jr	ra
10003188:	ac870004 	sw	a3,4(a0)
1000318c:	03e00008 	jr	ra
10003190:	2402ffff 	li	v0,-1
10003194:	03e00008 	jr	ra
10003198:	2402ffff 	li	v0,-1

1000319c <hf_queue_remhead>:
1000319c:	8c830000 	lw	v1,0(a0)
100031a0:	00000000 	nop
100031a4:	10600011 	beqz	v1,100031ec <hf_queue_remhead+0x50>
100031a8:	00000000 	nop
100031ac:	8c820008 	lw	v0,8(a0)
100031b0:	8c85000c 	lw	a1,12(a0)
100031b4:	00000000 	nop
100031b8:	1045000e 	beq	v0,a1,100031f4 <hf_queue_remhead+0x58>
100031bc:	24450001 	addiu	a1,v0,1
100031c0:	00a3001a 	div	zero,a1,v1
100031c4:	8c860010 	lw	a2,16(a0)
100031c8:	8c850004 	lw	a1,4(a0)
100031cc:	00021080 	sll	v0,v0,0x2
100031d0:	00c21021 	addu	v0,a2,v0
100031d4:	24a5ffff 	addiu	a1,a1,-1
100031d8:	8c420000 	lw	v0,0(v0)
100031dc:	ac850004 	sw	a1,4(a0)
100031e0:	00001810 	mfhi	v1
100031e4:	03e00008 	jr	ra
100031e8:	ac830008 	sw	v1,8(a0)
100031ec:	03e00008 	jr	ra
100031f0:	00001021 	move	v0,zero
100031f4:	03e00008 	jr	ra
100031f8:	00001021 	move	v0,zero

100031fc <hf_queue_get>:
100031fc:	8c820000 	lw	v0,0(a0)
10003200:	00000000 	nop
10003204:	10400013 	beqz	v0,10003254 <hf_queue_get+0x58>
10003208:	00000000 	nop
1000320c:	8c830004 	lw	v1,4(a0)
10003210:	00000000 	nop
10003214:	00a3182a 	slt	v1,a1,v1
10003218:	1060000e 	beqz	v1,10003254 <hf_queue_get+0x58>
1000321c:	00000000 	nop
10003220:	8c830008 	lw	v1,8(a0)
10003224:	8c86000c 	lw	a2,12(a0)
10003228:	00000000 	nop
1000322c:	1066000b 	beq	v1,a2,1000325c <hf_queue_get+0x60>
10003230:	00a32821 	addu	a1,a1,v1
10003234:	00a2001a 	div	zero,a1,v0
10003238:	8c830010 	lw	v1,16(a0)
1000323c:	00001010 	mfhi	v0
10003240:	00021080 	sll	v0,v0,0x2
10003244:	00621021 	addu	v0,v1,v0
10003248:	8c420000 	lw	v0,0(v0)
1000324c:	03e00008 	jr	ra
10003250:	00000000 	nop
10003254:	03e00008 	jr	ra
10003258:	00001021 	move	v0,zero
1000325c:	03e00008 	jr	ra
10003260:	00001021 	move	v0,zero

10003264 <hf_queue_swap>:
10003264:	8c830000 	lw	v1,0(a0)
10003268:	00000000 	nop
1000326c:	10600022 	beqz	v1,100032f8 <hf_queue_swap+0x94>
10003270:	00000000 	nop
10003274:	8c820004 	lw	v0,4(a0)
10003278:	00000000 	nop
1000327c:	00a2382a 	slt	a3,a1,v0
10003280:	10e0001d 	beqz	a3,100032f8 <hf_queue_swap+0x94>
10003284:	00000000 	nop
10003288:	00c2102a 	slt	v0,a2,v0
1000328c:	1040001a 	beqz	v0,100032f8 <hf_queue_swap+0x94>
10003290:	00000000 	nop
10003294:	8c820008 	lw	v0,8(a0)
10003298:	8c87000c 	lw	a3,12(a0)
1000329c:	00000000 	nop
100032a0:	10470017 	beq	v0,a3,10003300 <hf_queue_swap+0x9c>
100032a4:	00c23021 	addu	a2,a2,v0
100032a8:	00c3001a 	div	zero,a2,v1
100032ac:	00a22821 	addu	a1,a1,v0
100032b0:	8c870010 	lw	a3,16(a0)
100032b4:	00001021 	move	v0,zero
100032b8:	00003010 	mfhi	a2
100032bc:	00063080 	sll	a2,a2,0x2
100032c0:	00000000 	nop
100032c4:	00a3001a 	div	zero,a1,v1
100032c8:	00e62821 	addu	a1,a3,a2
100032cc:	8ca80000 	lw	t0,0(a1)
100032d0:	00001810 	mfhi	v1
100032d4:	00031880 	sll	v1,v1,0x2
100032d8:	00e33821 	addu	a3,a3,v1
100032dc:	8ce30000 	lw	v1,0(a3)
100032e0:	ace80000 	sw	t0,0(a3)
100032e4:	8c840010 	lw	a0,16(a0)
100032e8:	00000000 	nop
100032ec:	00863021 	addu	a2,a0,a2
100032f0:	03e00008 	jr	ra
100032f4:	acc30000 	sw	v1,0(a2)
100032f8:	03e00008 	jr	ra
100032fc:	2402ffff 	li	v0,-1
10003300:	03e00008 	jr	ra
10003304:	2402ffff 	li	v0,-1

10003308 <sched_be>:
10003308:	27bdffd0 	addiu	sp,sp,-48
1000330c:	afb40020 	sw	s4,32(sp)
10003310:	3c141009 	lui	s4,0x1009
10003314:	afb50024 	sw	s5,36(sp)
10003318:	afb20018 	sw	s2,24(sp)
1000331c:	afbf002c 	sw	ra,44(sp)
10003320:	afb60028 	sw	s6,40(sp)
10003324:	afb3001c 	sw	s3,28(sp)
10003328:	afb10014 	sw	s1,20(sp)
1000332c:	0c0006a2 	jal	10001a88 <random>
10003330:	afb00010 	sw	s0,16(sp)
10003334:	96951698 	lhu	s5,5784(s4)
10003338:	3c121009 	lui	s2,0x1009
1000333c:	0055001a 	div	zero,v0,s5
10003340:	8e4416a0 	lw	a0,5792(s2)
10003344:	0000a810 	mfhi	s5
10003348:	0c000c4c 	jal	10003130 <hf_queue_count>
1000334c:	00000000 	nop
10003350:	10400032 	beqz	v0,1000341c <sched_be+0x114>
10003354:	00000000 	nop
10003358:	3c111009 	lui	s1,0x1009
1000335c:	00008021 	move	s0,zero
10003360:	0220b021 	move	s6,s1
10003364:	24130003 	li	s3,3
10003368:	8e4416a0 	lw	a0,5792(s2)
1000336c:	0c000c67 	jal	1000319c <hf_queue_remhead>
10003370:	00000000 	nop
10003374:	10400024 	beqz	v0,10003408 <sched_be+0x100>
10003378:	ae221690 	sw	v0,5776(s1)
1000337c:	8e4416a0 	lw	a0,5792(s2)
10003380:	0c000c4f 	jal	1000313c <hf_queue_addtail>
10003384:	00402821 	move	a1,v0
10003388:	1440001b 	bnez	v0,100033f8 <sched_be+0xf0>
1000338c:	00000000 	nop
10003390:	8e231690 	lw	v1,5776(s1)
10003394:	00000000 	nop
10003398:	90620016 	lbu	v0,22(v1)
1000339c:	00000000 	nop
100033a0:	1053fff1 	beq	v0,s3,10003368 <sched_be+0x60>
100033a4:	00000000 	nop
100033a8:	96821698 	lhu	v0,5784(s4)
100033ac:	00000000 	nop
100033b0:	0202001a 	div	zero,s0,v0
100033b4:	00001010 	mfhi	v0
100033b8:	16a2ffeb 	bne	s5,v0,10003368 <sched_be+0x60>
100033bc:	26100001 	addiu	s0,s0,1
100033c0:	8c640020 	lw	a0,32(v1)
100033c4:	8fbf002c 	lw	ra,44(sp)
100033c8:	24840001 	addiu	a0,a0,1
100033cc:	94620000 	lhu	v0,0(v1)
100033d0:	8fb60028 	lw	s6,40(sp)
100033d4:	8fb50024 	lw	s5,36(sp)
100033d8:	8fb40020 	lw	s4,32(sp)
100033dc:	8fb3001c 	lw	s3,28(sp)
100033e0:	8fb20018 	lw	s2,24(sp)
100033e4:	8fb10014 	lw	s1,20(sp)
100033e8:	8fb00010 	lw	s0,16(sp)
100033ec:	ac640020 	sw	a0,32(v1)
100033f0:	03e00008 	jr	ra
100033f4:	27bd0030 	addiu	sp,sp,48
100033f8:	0c000bc9 	jal	10002f24 <panic>
100033fc:	24040009 	li	a0,9
10003400:	08000ce4 	j	10003390 <sched_be+0x88>
10003404:	00000000 	nop
10003408:	0c000bc9 	jal	10002f24 <panic>
1000340c:	24040005 	li	a0,5
10003410:	8ec21690 	lw	v0,5776(s6)
10003414:	08000cdf 	j	1000337c <sched_be+0x74>
10003418:	00000000 	nop
1000341c:	0c000bc9 	jal	10002f24 <panic>
10003420:	24040005 	li	a0,5
10003424:	08000cd7 	j	1000335c <sched_be+0x54>
10003428:	3c111009 	lui	s1,0x1009

1000342c <sched_rt>:
1000342c:	27bdffc8 	addiu	sp,sp,-56
10003430:	afb10014 	sw	s1,20(sp)
10003434:	3c111009 	lui	s1,0x1009
10003438:	8e2416a4 	lw	a0,5796(s1)
1000343c:	afb60028 	sw	s6,40(sp)
10003440:	afbf0034 	sw	ra,52(sp)
10003444:	afbe0030 	sw	s8,48(sp)
10003448:	afb7002c 	sw	s7,44(sp)
1000344c:	afb50024 	sw	s5,36(sp)
10003450:	afb40020 	sw	s4,32(sp)
10003454:	afb3001c 	sw	s3,28(sp)
10003458:	afb20018 	sw	s2,24(sp)
1000345c:	0c000c4c 	jal	10003130 <hf_queue_count>
10003460:	afb00010 	sw	s0,16(sp)
10003464:	1440000e 	bnez	v0,100034a0 <sched_rt+0x74>
10003468:	0040b021 	move	s6,v0
1000346c:	00001021 	move	v0,zero
10003470:	8fbf0034 	lw	ra,52(sp)
10003474:	8fbe0030 	lw	s8,48(sp)
10003478:	8fb7002c 	lw	s7,44(sp)
1000347c:	8fb60028 	lw	s6,40(sp)
10003480:	8fb50024 	lw	s5,36(sp)
10003484:	8fb40020 	lw	s4,32(sp)
10003488:	8fb3001c 	lw	s3,28(sp)
1000348c:	8fb20018 	lw	s2,24(sp)
10003490:	8fb10014 	lw	s1,20(sp)
10003494:	8fb00010 	lw	s0,16(sp)
10003498:	03e00008 	jr	ra
1000349c:	27bd0038 	addiu	sp,sp,56
100034a0:	8e2416a4 	lw	a0,5796(s1)
100034a4:	0c000c4c 	jal	10003130 <hf_queue_count>
100034a8:	00009021 	move	s2,zero
100034ac:	2457ffff 	addiu	s7,v0,-1
100034b0:	00409821 	move	s3,v0
100034b4:	0257102a 	slt	v0,s2,s7
100034b8:	10400024 	beqz	v0,1000354c <sched_rt+0x120>
100034bc:	0220a821 	move	s5,s1
100034c0:	26540001 	addiu	s4,s2,1
100034c4:	0293102a 	slt	v0,s4,s3
100034c8:	1040001c 	beqz	v0,1000353c <sched_rt+0x110>
100034cc:	00000000 	nop
100034d0:	08000d39 	j	100034e4 <sched_rt+0xb8>
100034d4:	02808021 	move	s0,s4
100034d8:	26100001 	addiu	s0,s0,1
100034dc:	12130017 	beq	s0,s3,1000353c <sched_rt+0x110>
100034e0:	00000000 	nop
100034e4:	8e2416a4 	lw	a0,5796(s1)
100034e8:	0c000c7f 	jal	100031fc <hf_queue_get>
100034ec:	02402821 	move	a1,s2
100034f0:	8e2416a4 	lw	a0,5796(s1)
100034f4:	02002821 	move	a1,s0
100034f8:	0c000c7f 	jal	100031fc <hf_queue_get>
100034fc:	0040f021 	move	s8,v0
10003500:	94420028 	lhu	v0,40(v0)
10003504:	97c30028 	lhu	v1,40(s8)
10003508:	00000000 	nop
1000350c:	0043102b 	sltu	v0,v0,v1
10003510:	1040fff1 	beqz	v0,100034d8 <sched_rt+0xac>
10003514:	02003021 	move	a2,s0
10003518:	8ea416a4 	lw	a0,5796(s5)
1000351c:	0c000c99 	jal	10003264 <hf_queue_swap>
10003520:	02402821 	move	a1,s2
10003524:	1040ffec 	beqz	v0,100034d8 <sched_rt+0xac>
10003528:	2404000c 	li	a0,12
1000352c:	0c000bc9 	jal	10002f24 <panic>
10003530:	26100001 	addiu	s0,s0,1
10003534:	1613ffeb 	bne	s0,s3,100034e4 <sched_rt+0xb8>
10003538:	00000000 	nop
1000353c:	02809021 	move	s2,s4
10003540:	0297102a 	slt	v0,s4,s7
10003544:	1440ffdf 	bnez	v0,100034c4 <sched_rt+0x98>
10003548:	26540001 	addiu	s4,s2,1
1000354c:	1ac0003f 	blez	s6,1000364c <sched_rt+0x220>
10003550:	3c121009 	lui	s2,0x1009
10003554:	0000a021 	move	s4,zero
10003558:	00008021 	move	s0,zero
1000355c:	0240a821 	move	s5,s2
10003560:	08000d83 	j	1000360c <sched_rt+0x1e0>
10003564:	24130003 	li	s3,3
10003568:	8e421690 	lw	v0,5776(s2)
1000356c:	00000000 	nop
10003570:	90430016 	lbu	v1,22(v0)
10003574:	00000000 	nop
10003578:	1073000f 	beq	v1,s3,100035b8 <sched_rt+0x18c>
1000357c:	00000000 	nop
10003580:	9443002e 	lhu	v1,46(v0)
10003584:	00000000 	nop
10003588:	1060000b 	beqz	v1,100035b8 <sched_rt+0x18c>
1000358c:	00000000 	nop
10003590:	16800009 	bnez	s4,100035b8 <sched_rt+0x18c>
10003594:	2463ffff 	addiu	v1,v1,-1
10003598:	3063ffff 	andi	v1,v1,0xffff
1000359c:	94540000 	lhu	s4,0(v0)
100035a0:	14600005 	bnez	v1,100035b8 <sched_rt+0x18c>
100035a4:	a443002e 	sh	v1,46(v0)
100035a8:	8c43001c 	lw	v1,28(v0)
100035ac:	00000000 	nop
100035b0:	24630001 	addiu	v1,v1,1
100035b4:	ac43001c 	sw	v1,28(v0)
100035b8:	94430030 	lhu	v1,48(v0)
100035bc:	00000000 	nop
100035c0:	2463ffff 	addiu	v1,v1,-1
100035c4:	3063ffff 	andi	v1,v1,0xffff
100035c8:	1460000d 	bnez	v1,10003600 <sched_rt+0x1d4>
100035cc:	a4430030 	sh	v1,48(v0)
100035d0:	94440028 	lhu	a0,40(v0)
100035d4:	9443002e 	lhu	v1,46(v0)
100035d8:	00000000 	nop
100035dc:	10600005 	beqz	v1,100035f4 <sched_rt+0x1c8>
100035e0:	a4440030 	sh	a0,48(v0)
100035e4:	8c430024 	lw	v1,36(v0)
100035e8:	00000000 	nop
100035ec:	24630001 	addiu	v1,v1,1
100035f0:	ac430024 	sw	v1,36(v0)
100035f4:	9443002a 	lhu	v1,42(v0)
100035f8:	00000000 	nop
100035fc:	a443002e 	sh	v1,46(v0)
10003600:	26100001 	addiu	s0,s0,1
10003604:	1216000f 	beq	s0,s6,10003644 <sched_rt+0x218>
10003608:	00000000 	nop
1000360c:	8e2416a4 	lw	a0,5796(s1)
10003610:	0c000c67 	jal	1000319c <hf_queue_remhead>
10003614:	00000000 	nop
10003618:	10400011 	beqz	v0,10003660 <sched_rt+0x234>
1000361c:	ae421690 	sw	v0,5776(s2)
10003620:	8e2416a4 	lw	a0,5796(s1)
10003624:	0c000c4f 	jal	1000313c <hf_queue_addtail>
10003628:	00402821 	move	a1,v0
1000362c:	1040ffce 	beqz	v0,10003568 <sched_rt+0x13c>
10003630:	00000000 	nop
10003634:	0c000bc9 	jal	10002f24 <panic>
10003638:	2404000b 	li	a0,11
1000363c:	08000d5a 	j	10003568 <sched_rt+0x13c>
10003640:	00000000 	nop
10003644:	1680000b 	bnez	s4,10003674 <sched_rt+0x248>
10003648:	00141880 	sll	v1,s4,0x2
1000364c:	3c021001 	lui	v0,0x1001
10003650:	24426354 	addiu	v0,v0,25428
10003654:	ae421690 	sw	v0,5776(s2)
10003658:	08000d1c 	j	10003470 <sched_rt+0x44>
1000365c:	00001021 	move	v0,zero
10003660:	0c000bc9 	jal	10002f24 <panic>
10003664:	24040006 	li	a0,6
10003668:	8ea21690 	lw	v0,5776(s5)
1000366c:	08000d88 	j	10003620 <sched_rt+0x1f4>
10003670:	00000000 	nop
10003674:	00141140 	sll	v0,s4,0x5
10003678:	00621821 	addu	v1,v1,v0
1000367c:	00741821 	addu	v1,v1,s4
10003680:	3c021001 	lui	v0,0x1001
10003684:	00031880 	sll	v1,v1,0x2
10003688:	24426354 	addiu	v0,v0,25428
1000368c:	00431021 	addu	v0,v0,v1
10003690:	ae421690 	sw	v0,5776(s2)
10003694:	08000d1c 	j	10003470 <sched_rt+0x44>
10003698:	02801021 	move	v0,s4

1000369c <dispatch_isr>:
1000369c:	27bdffd0 	addiu	sp,sp,-48
100036a0:	afbf002c 	sw	ra,44(sp)
100036a4:	afb40028 	sw	s4,40(sp)
100036a8:	afb30024 	sw	s3,36(sp)
100036ac:	afb20020 	sw	s2,32(sp)
100036b0:	afb1001c 	sw	s1,28(sp)
100036b4:	0c000405 	jal	10001014 <_timer_reset>
100036b8:	afb00018 	sw	s0,24(sp)
100036bc:	3c021009 	lui	v0,0x1009
100036c0:	944216a8 	lhu	v0,5800(v0)
100036c4:	00000000 	nop
100036c8:	14400009 	bnez	v0,100036f0 <dispatch_isr+0x54>
100036cc:	3c021009 	lui	v0,0x1009
100036d0:	8fbf002c 	lw	ra,44(sp)
100036d4:	8fb40028 	lw	s4,40(sp)
100036d8:	8fb30024 	lw	s3,36(sp)
100036dc:	8fb20020 	lw	s2,32(sp)
100036e0:	8fb1001c 	lw	s1,28(sp)
100036e4:	8fb00018 	lw	s0,24(sp)
100036e8:	03e00008 	jr	ra
100036ec:	27bd0030 	addiu	sp,sp,48
100036f0:	9443168c 	lhu	v1,5772(v0)
100036f4:	00000000 	nop
100036f8:	00032080 	sll	a0,v1,0x2
100036fc:	00031140 	sll	v0,v1,0x5
10003700:	00821021 	addu	v0,a0,v0
10003704:	00431821 	addu	v1,v0,v1
10003708:	3c021001 	lui	v0,0x1001
1000370c:	00031880 	sll	v1,v1,0x2
10003710:	24426354 	addiu	v0,v0,25428
10003714:	00431021 	addu	v0,v0,v1
10003718:	24440034 	addiu	a0,v0,52
1000371c:	3c031009 	lui	v1,0x1009
10003720:	0c00008f 	jal	1000023c <setjmp>
10003724:	ac621690 	sw	v0,5776(v1)
10003728:	1440ffe9 	bnez	v0,100036d0 <dispatch_isr+0x34>
1000372c:	3c021009 	lui	v0,0x1009
10003730:	8c421690 	lw	v0,5776(v0)
10003734:	24030002 	li	v1,2
10003738:	90440016 	lbu	a0,22(v0)
1000373c:	00000000 	nop
10003740:	10830060 	beq	a0,v1,100038c4 <dispatch_isr+0x228>
10003744:	24030001 	li	v1,1
10003748:	8c420088 	lw	v0,136(v0)
1000374c:	00000000 	nop
10003750:	8c430000 	lw	v1,0(v0)
10003754:	3c02b00b 	lui	v0,0xb00b
10003758:	3442b00b 	ori	v0,v0,0xb00b
1000375c:	10620004 	beq	v1,v0,10003770 <dispatch_isr+0xd4>
10003760:	3c021009 	lui	v0,0x1009
10003764:	0c000bc9 	jal	10002f24 <panic>
10003768:	24040002 	li	a0,2
1000376c:	3c021009 	lui	v0,0x1009
10003770:	94421698 	lhu	v0,5784(v0)
10003774:	00000000 	nop
10003778:	10400048 	beqz	v0,1000389c <dispatch_isr+0x200>
1000377c:	3c111009 	lui	s1,0x1009
10003780:	8e2416ac 	lw	a0,5804(s1)
10003784:	0c000c4c 	jal	10003130 <hf_queue_count>
10003788:	00000000 	nop
1000378c:	18400024 	blez	v0,10003820 <dispatch_isr+0x184>
10003790:	00409021 	move	s2,v0
10003794:	00008021 	move	s0,zero
10003798:	3c141009 	lui	s4,0x1009
1000379c:	08000df1 	j	100037c4 <dispatch_isr+0x128>
100037a0:	3c131009 	lui	s3,0x1009
100037a4:	8e6416a4 	lw	a0,5796(s3)
100037a8:	0c000c4f 	jal	1000313c <hf_queue_addtail>
100037ac:	00402821 	move	a1,v0
100037b0:	1440004f 	bnez	v0,100038f0 <dispatch_isr+0x254>
100037b4:	00000000 	nop
100037b8:	26100001 	addiu	s0,s0,1
100037bc:	12120018 	beq	s0,s2,10003820 <dispatch_isr+0x184>
100037c0:	00000000 	nop
100037c4:	8e2416ac 	lw	a0,5804(s1)
100037c8:	0c000c67 	jal	1000319c <hf_queue_remhead>
100037cc:	00000000 	nop
100037d0:	1040004b 	beqz	v0,10003900 <dispatch_isr+0x264>
100037d4:	24040007 	li	a0,7
100037d8:	8c430018 	lw	v1,24(v0)
100037dc:	00000000 	nop
100037e0:	2463ffff 	addiu	v1,v1,-1
100037e4:	14600039 	bnez	v1,100038cc <dispatch_isr+0x230>
100037e8:	ac430018 	sw	v1,24(v0)
100037ec:	94430028 	lhu	v1,40(v0)
100037f0:	00000000 	nop
100037f4:	1460ffeb 	bnez	v1,100037a4 <dispatch_isr+0x108>
100037f8:	00000000 	nop
100037fc:	8e8416a0 	lw	a0,5792(s4)
10003800:	0c000c4f 	jal	1000313c <hf_queue_addtail>
10003804:	00402821 	move	a1,v0
10003808:	1040ffeb 	beqz	v0,100037b8 <dispatch_isr+0x11c>
1000380c:	24040009 	li	a0,9
10003810:	0c000bc9 	jal	10002f24 <panic>
10003814:	26100001 	addiu	s0,s0,1
10003818:	1612ffea 	bne	s0,s2,100037c4 <dispatch_isr+0x128>
1000381c:	00000000 	nop
10003820:	0c000d0b 	jal	1000342c <sched_rt>
10003824:	3c101009 	lui	s0,0x1009
10003828:	3046ffff 	andi	a2,v0,0xffff
1000382c:	14c00005 	bnez	a2,10003844 <dispatch_isr+0x1a8>
10003830:	a606168c 	sh	a2,5772(s0)
10003834:	0c000cc2 	jal	10003308 <sched_be>
10003838:	00000000 	nop
1000383c:	3046ffff 	andi	a2,v0,0xffff
10003840:	a606168c 	sh	a2,5772(s0)
10003844:	3c031009 	lui	v1,0x1009
10003848:	246315cc 	addiu	v1,v1,5580
1000384c:	8c670004 	lw	a3,4(v1)
10003850:	3c021009 	lui	v0,0x1009
10003854:	8c421690 	lw	v0,5776(v0)
10003858:	24e70001 	addiu	a3,a3,1
1000385c:	24050002 	li	a1,2
10003860:	24440034 	addiu	a0,v0,52
10003864:	a0450016 	sb	a1,22(v0)
10003868:	ac670004 	sw	a3,4(v1)
1000386c:	0c0000ab 	jal	100002ac <_restoreexec>
10003870:	24050001 	li	a1,1
10003874:	0c000bc9 	jal	10002f24 <panic>
10003878:	240400ff 	li	a0,255
1000387c:	8fbf002c 	lw	ra,44(sp)
10003880:	8fb40028 	lw	s4,40(sp)
10003884:	8fb30024 	lw	s3,36(sp)
10003888:	8fb20020 	lw	s2,32(sp)
1000388c:	8fb1001c 	lw	s1,28(sp)
10003890:	8fb00018 	lw	s0,24(sp)
10003894:	03e00008 	jr	ra
10003898:	27bd0030 	addiu	sp,sp,48
1000389c:	0c000bc9 	jal	10002f24 <panic>
100038a0:	24040003 	li	a0,3
100038a4:	8fbf002c 	lw	ra,44(sp)
100038a8:	8fb40028 	lw	s4,40(sp)
100038ac:	8fb30024 	lw	s3,36(sp)
100038b0:	8fb20020 	lw	s2,32(sp)
100038b4:	8fb1001c 	lw	s1,28(sp)
100038b8:	8fb00018 	lw	s0,24(sp)
100038bc:	03e00008 	jr	ra
100038c0:	27bd0030 	addiu	sp,sp,48
100038c4:	08000dd2 	j	10003748 <dispatch_isr+0xac>
100038c8:	a0430016 	sb	v1,22(v0)
100038cc:	8e2416ac 	lw	a0,5804(s1)
100038d0:	0c000c4f 	jal	1000313c <hf_queue_addtail>
100038d4:	00402821 	move	a1,v0
100038d8:	1040ffb7 	beqz	v0,100037b8 <dispatch_isr+0x11c>
100038dc:	00000000 	nop
100038e0:	0c000bc9 	jal	10002f24 <panic>
100038e4:	2404000a 	li	a0,10
100038e8:	08000def 	j	100037bc <dispatch_isr+0x120>
100038ec:	26100001 	addiu	s0,s0,1
100038f0:	0c000bc9 	jal	10002f24 <panic>
100038f4:	2404000b 	li	a0,11
100038f8:	08000def 	j	100037bc <dispatch_isr+0x120>
100038fc:	26100001 	addiu	s0,s0,1
10003900:	0c000bc9 	jal	10002f24 <panic>
10003904:	afa20010 	sw	v0,16(sp)
10003908:	8fa20010 	lw	v0,16(sp)
1000390c:	08000df6 	j	100037d8 <dispatch_isr+0x13c>
10003910:	00000000 	nop

10003914 <hf_selfid>:
10003914:	3c021009 	lui	v0,0x1009
10003918:	8c421690 	lw	v0,5776(v0)
1000391c:	00000000 	nop
10003920:	94420000 	lhu	v0,0(v0)
10003924:	03e00008 	jr	ra
10003928:	00000000 	nop

1000392c <hf_spawn>:
1000392c:	27bdffa0 	addiu	sp,sp,-96
10003930:	afb40048 	sw	s4,72(sp)
10003934:	afb20040 	sw	s2,64(sp)
10003938:	30b4ffff 	andi	s4,a1,0xffff
1000393c:	30d2ffff 	andi	s2,a2,0xffff
10003940:	0292102b 	sltu	v0,s4,s2
10003944:	afb60050 	sw	s6,80(sp)
10003948:	afb5004c 	sw	s5,76(sp)
1000394c:	afbf005c 	sw	ra,92(sp)
10003950:	afbe0058 	sw	s8,88(sp)
10003954:	afb70054 	sw	s7,84(sp)
10003958:	afb30044 	sw	s3,68(sp)
1000395c:	afb1003c 	sw	s1,60(sp)
10003960:	afb00038 	sw	s0,56(sp)
10003964:	0080a821 	move	s5,a0
10003968:	30f6ffff 	andi	s6,a3,0xffff
1000396c:	afa00028 	sw	zero,40(sp)
10003970:	14400093 	bnez	v0,10003bc0 <hf_spawn+0x294>
10003974:	2402ff9b 	li	v0,-101
10003978:	02d2102b 	sltu	v0,s6,s2
1000397c:	14400090 	bnez	v0,10003bc0 <hf_spawn+0x294>
10003980:	2402ff9b 	li	v0,-101
10003984:	0c00007b 	jal	100001ec <_interrupt_set>
10003988:	00002021 	move	a0,zero
1000398c:	afa2002c 	sw	v0,44(sp)
10003990:	8fa20028 	lw	v0,40(sp)
10003994:	3c101001 	lui	s0,0x1001
10003998:	00022080 	sll	a0,v0,0x2
1000399c:	00021940 	sll	v1,v0,0x5
100039a0:	00831821 	addu	v1,a0,v1
100039a4:	00621021 	addu	v0,v1,v0
100039a8:	26106354 	addiu	s0,s0,25428
100039ac:	00021080 	sll	v0,v0,0x2
100039b0:	02021021 	addu	v0,s0,v0
100039b4:	8c420084 	lw	v0,132(v0)
100039b8:	00000000 	nop
100039bc:	14400013 	bnez	v0,10003a0c <hf_spawn+0xe0>
100039c0:	00000000 	nop
100039c4:	08000e88 	j	10003a20 <hf_spawn+0xf4>
100039c8:	00000000 	nop
100039cc:	8fa20028 	lw	v0,40(sp)
100039d0:	00000000 	nop
100039d4:	24420001 	addiu	v0,v0,1
100039d8:	afa20028 	sw	v0,40(sp)
100039dc:	8fa20028 	lw	v0,40(sp)
100039e0:	00000000 	nop
100039e4:	00022080 	sll	a0,v0,0x2
100039e8:	00021940 	sll	v1,v0,0x5
100039ec:	00831821 	addu	v1,a0,v1
100039f0:	00621021 	addu	v0,v1,v0
100039f4:	00021080 	sll	v0,v0,0x2
100039f8:	02021021 	addu	v0,s0,v0
100039fc:	8c420084 	lw	v0,132(v0)
10003a00:	00000000 	nop
10003a04:	10400006 	beqz	v0,10003a20 <hf_spawn+0xf4>
10003a08:	00000000 	nop
10003a0c:	8fa20028 	lw	v0,40(sp)
10003a10:	00000000 	nop
10003a14:	2c42001e 	sltiu	v0,v0,30
10003a18:	1440ffec 	bnez	v0,100039cc <hf_spawn+0xa0>
10003a1c:	00000000 	nop
10003a20:	8fa30028 	lw	v1,40(sp)
10003a24:	2402001e 	li	v0,30
10003a28:	1062008a 	beq	v1,v0,10003c54 <hf_spawn+0x328>
10003a2c:	3c041000 	lui	a0,0x1000
10003a30:	8fa20028 	lw	v0,40(sp)
10003a34:	3c171009 	lui	s7,0x1009
10003a38:	00022080 	sll	a0,v0,0x2
10003a3c:	00021940 	sll	v1,v0,0x5
10003a40:	00831821 	addu	v1,a0,v1
10003a44:	00621021 	addu	v0,v1,v0
10003a48:	96e71698 	lhu	a3,5784(s7)
10003a4c:	8fa30028 	lw	v1,40(sp)
10003a50:	00021080 	sll	v0,v0,0x2
10003a54:	02021021 	addu	v0,s0,v0
10003a58:	8fa50070 	lw	a1,112(sp)
10003a5c:	3c111009 	lui	s1,0x1009
10003a60:	24e70001 	addiu	a3,a3,1
10003a64:	24060014 	li	a2,20
10003a68:	a4430000 	sh	v1,0(v0)
10003a6c:	24440002 	addiu	a0,v0,2
10003a70:	a6e71698 	sh	a3,5784(s7)
10003a74:	0c00066e 	jal	100019b8 <strncpy>
10003a78:	ae221690 	sw	v0,5776(s1)
10003a7c:	8fb30074 	lw	s3,116(sp)
10003a80:	8e3e1690 	lw	s8,5776(s1)
10003a84:	26730003 	addiu	s3,s3,3
10003a88:	00139882 	srl	s3,s3,0x2
10003a8c:	00139880 	sll	s3,s3,0x2
10003a90:	02602021 	move	a0,s3
10003a94:	a3c00016 	sb	zero,22(s8)
10003a98:	afc00018 	sw	zero,24(s8)
10003a9c:	a7d40028 	sh	s4,40(s8)
10003aa0:	a7d2002a 	sh	s2,42(s8)
10003aa4:	a7d6002c 	sh	s6,44(s8)
10003aa8:	a7d2002e 	sh	s2,46(s8)
10003aac:	a7d60030 	sh	s6,48(s8)
10003ab0:	afc0001c 	sw	zero,28(s8)
10003ab4:	afc00020 	sw	zero,32(s8)
10003ab8:	afc00024 	sw	zero,36(s8)
10003abc:	afd50084 	sw	s5,132(s8)
10003ac0:	0c0007e4 	jal	10001f90 <hf_malloc>
10003ac4:	afd3008c 	sw	s3,140(s8)
10003ac8:	8e231690 	lw	v1,5776(s1)
10003acc:	afc20088 	sw	v0,136(s8)
10003ad0:	8c650088 	lw	a1,136(v1)
10003ad4:	94640000 	lhu	a0,0(v1)
10003ad8:	24a5fffc 	addiu	a1,a1,-4
10003adc:	0c0003b8 	jal	10000ee0 <_set_task_sp>
10003ae0:	00b32821 	addu	a1,a1,s3
10003ae4:	8e221690 	lw	v0,5776(s1)
10003ae8:	00000000 	nop
10003aec:	94440000 	lhu	a0,0(v0)
10003af0:	8c450084 	lw	a1,132(v0)
10003af4:	0c0003cf 	jal	10000f3c <_set_task_tp>
10003af8:	00000000 	nop
10003afc:	8e3e1690 	lw	s8,5776(s1)
10003b00:	00000000 	nop
10003b04:	8fc20088 	lw	v0,136(s8)
10003b08:	00000000 	nop
10003b0c:	10400042 	beqz	v0,10003c18 <hf_spawn+0x2ec>
10003b10:	3c03b00b 	lui	v1,0xb00b
10003b14:	97c60000 	lhu	a2,0(s8)
10003b18:	97c70028 	lhu	a3,40(s8)
10003b1c:	3463b00b 	ori	v1,v1,0xb00b
10003b20:	00c02021 	move	a0,a2
10003b24:	ac430000 	sw	v1,0(v0)
10003b28:	97d6002a 	lhu	s6,42(s8)
10003b2c:	97d5002c 	lhu	s5,44(s8)
10003b30:	8fd20084 	lw	s2,132(s8)
10003b34:	afa60034 	sw	a2,52(sp)
10003b38:	0c0003c3 	jal	10000f0c <_get_task_sp>
10003b3c:	afa70030 	sw	a3,48(sp)
10003b40:	3c041000 	lui	a0,0x1000
10003b44:	8fa60034 	lw	a2,52(sp)
10003b48:	8fa70030 	lw	a3,48(sp)
10003b4c:	248443bc 	addiu	a0,a0,17340
10003b50:	27c50002 	addiu	a1,s8,2
10003b54:	afb60010 	sw	s6,16(sp)
10003b58:	afb50014 	sw	s5,20(sp)
10003b5c:	afb20018 	sw	s2,24(sp)
10003b60:	afa2001c 	sw	v0,28(sp)
10003b64:	0c00048a 	jal	10001228 <kprintf>
10003b68:	afb30020 	sw	s3,32(sp)
10003b6c:	16800020 	bnez	s4,10003bf0 <hf_spawn+0x2c4>
10003b70:	3c021009 	lui	v0,0x1009
10003b74:	3c021009 	lui	v0,0x1009
10003b78:	8c4416a0 	lw	a0,5792(v0)
10003b7c:	8e251690 	lw	a1,5776(s1)
10003b80:	0c000c4f 	jal	1000313c <hf_queue_addtail>
10003b84:	00000000 	nop
10003b88:	1440002e 	bnez	v0,10003c44 <hf_spawn+0x318>
10003b8c:	00000000 	nop
10003b90:	3c021009 	lui	v0,0x1009
10003b94:	9442168c 	lhu	v0,5772(v0)
10003b98:	8fa4002c 	lw	a0,44(sp)
10003b9c:	00022880 	sll	a1,v0,0x2
10003ba0:	00021940 	sll	v1,v0,0x5
10003ba4:	00a31821 	addu	v1,a1,v1
10003ba8:	00621021 	addu	v0,v1,v0
10003bac:	00021080 	sll	v0,v0,0x2
10003bb0:	02028021 	addu	s0,s0,v0
10003bb4:	0c00007b 	jal	100001ec <_interrupt_set>
10003bb8:	ae301690 	sw	s0,5776(s1)
10003bbc:	8fa20028 	lw	v0,40(sp)
10003bc0:	8fbf005c 	lw	ra,92(sp)
10003bc4:	8fbe0058 	lw	s8,88(sp)
10003bc8:	8fb70054 	lw	s7,84(sp)
10003bcc:	8fb60050 	lw	s6,80(sp)
10003bd0:	8fb5004c 	lw	s5,76(sp)
10003bd4:	8fb40048 	lw	s4,72(sp)
10003bd8:	8fb30044 	lw	s3,68(sp)
10003bdc:	8fb20040 	lw	s2,64(sp)
10003be0:	8fb1003c 	lw	s1,60(sp)
10003be4:	8fb00038 	lw	s0,56(sp)
10003be8:	03e00008 	jr	ra
10003bec:	27bd0060 	addiu	sp,sp,96
10003bf0:	8c4416a4 	lw	a0,5796(v0)
10003bf4:	8e251690 	lw	a1,5776(s1)
10003bf8:	0c000c4f 	jal	1000313c <hf_queue_addtail>
10003bfc:	00000000 	nop
10003c00:	1040ffe3 	beqz	v0,10003b90 <hf_spawn+0x264>
10003c04:	00000000 	nop
10003c08:	0c000bc9 	jal	10002f24 <panic>
10003c0c:	2404000b 	li	a0,11
10003c10:	08000ee5 	j	10003b94 <hf_spawn+0x268>
10003c14:	3c021009 	lui	v0,0x1009
10003c18:	96e21698 	lhu	v0,5784(s7)
10003c1c:	3c041000 	lui	a0,0x1000
10003c20:	2442ffff 	addiu	v0,v0,-1
10003c24:	afc00084 	sw	zero,132(s8)
10003c28:	24844404 	addiu	a0,a0,17412
10003c2c:	0c00048a 	jal	10001228 <kprintf>
10003c30:	a6e21698 	sh	v0,5784(s7)
10003c34:	2402ff98 	li	v0,-104
10003c38:	afa20028 	sw	v0,40(sp)
10003c3c:	08000ee5 	j	10003b94 <hf_spawn+0x268>
10003c40:	3c021009 	lui	v0,0x1009
10003c44:	0c000bc9 	jal	10002f24 <panic>
10003c48:	24040009 	li	a0,9
10003c4c:	08000ee5 	j	10003b94 <hf_spawn+0x268>
10003c50:	3c021009 	lui	v0,0x1009
10003c54:	24844394 	addiu	a0,a0,17300
10003c58:	0c00048a 	jal	10001228 <kprintf>
10003c5c:	2405001e 	li	a1,30
10003c60:	8fa4002c 	lw	a0,44(sp)
10003c64:	0c00007b 	jal	100001ec <_interrupt_set>
10003c68:	00000000 	nop
10003c6c:	08000ef0 	j	10003bc0 <hf_spawn+0x294>
10003c70:	2402ff99 	li	v0,-103
